../bootloader/bootloader_dbg.elf
architecture: avr:51, flags 0x00000112:
EXEC_P, HAS_SYMS, D_PAGED
start address 0x0001e000

Program Header:
    LOAD off    0x000000b4 vaddr 0x0001e000 paddr 0x0001e000 align 2**1
         filesz 0x00000b24 memsz 0x00000b24 flags r-x
    LOAD off    0x00000bd8 vaddr 0x00800100 paddr 0x0001eb24 align 2**0
         filesz 0x00000000 memsz 0x00000000 flags rw-
    LOAD off    0x00000bd8 vaddr 0x00800100 paddr 0x00800100 align 2**0
         filesz 0x00000000 memsz 0x000003b3 flags rw-
    LOAD off    0x00000bd8 vaddr 0x00810000 paddr 0x00810000 align 2**0
         filesz 0x00000303 memsz 0x00000303 flags rw-
Sections:
Idx Name          Size      VMA       LMA       File off  Algn
  0 .data         00000000  00800100  0001eb24  00000bd8  2**0
                  CONTENTS, ALLOC, LOAD, DATA
  1 .text         00000b24  0001e000  0001e000  000000b4  2**1
                  CONTENTS, ALLOC, LOAD, READONLY, CODE
  2 .bss          000003b3  00800100  00800100  00000bd8  2**0
                  ALLOC
  3 .eeprom       00000303  00810000  00810000  00000bd8  2**0
                  CONTENTS, ALLOC, LOAD, DATA
  4 .stab         0000267c  00000000  00000000  00000edc  2**2
                  CONTENTS, READONLY, DEBUGGING
  5 .stabstr      000013bf  00000000  00000000  00003558  2**0
                  CONTENTS, READONLY, DEBUGGING
  6 .comment      00000011  00000000  00000000  00004917  2**0
                  CONTENTS, READONLY
SYMBOL TABLE:
00800100 l    d  .data	00000000 .data
0001e000 l    d  .text	00000000 .text
00800100 l    d  .bss	00000000 .bss
00810000 l    d  .eeprom	00000000 .eeprom
00000000 l    d  .stab	00000000 .stab
00000000 l    d  .stabstr	00000000 .stabstr
00000000 l    d  .comment	00000000 .comment
00000000 l    df *ABS*	00000000 uart.c
0000003e l       *ABS*	00000000 __SP_H__
0000003d l       *ABS*	00000000 __SP_L__
0000003f l       *ABS*	00000000 __SREG__
0000003b l       *ABS*	00000000 __RAMPZ__
00000000 l       *ABS*	00000000 __tmp_reg__
00000001 l       *ABS*	00000000 __zero_reg__
00000000 l    df *ABS*	00000000 sys_startup.c
0000003e l       *ABS*	00000000 __SP_H__
0000003d l       *ABS*	00000000 __SP_L__
0000003f l       *ABS*	00000000 __SREG__
0000003b l       *ABS*	00000000 __RAMPZ__
00000000 l       *ABS*	00000000 __tmp_reg__
00000001 l       *ABS*	00000000 __zero_reg__
00000000 l    df *ABS*	00000000 bootloader.c
0000003e l       *ABS*	00000000 __SP_H__
0000003d l       *ABS*	00000000 __SP_L__
0000003f l       *ABS*	00000000 __SREG__
0000003b l       *ABS*	00000000 __RAMPZ__
00000000 l       *ABS*	00000000 __tmp_reg__
00000001 l       *ABS*	00000000 __zero_reg__
00000000 l    df *ABS*	00000000 aes.c
0000003e l       *ABS*	00000000 __SP_H__
0000003d l       *ABS*	00000000 __SP_L__
0000003f l       *ABS*	00000000 __SREG__
0000003b l       *ABS*	00000000 __RAMPZ__
00000000 l       *ABS*	00000000 __tmp_reg__
00000001 l       *ABS*	00000000 __zero_reg__
0001e3ea l     F .text	00000052 AddRoundKey
008001b2 l     O .bss	00000002 state
00800102 l     O .bss	000000b0 RoundKey
0001e43c l     F .text	0000003a ShiftRows
0001e476 l     F .text	00000016 xtime
0001e48c l     F .text	0000002e InvSubBytes
0001e4ba l     F .text	0000003a InvShiftRows
0001e4f4 l     F .text	0000002e SubBytes
0001e522 l     F .text	00000172 KeyExpansion
00800100 l     O .bss	00000002 Key
00810203 l     O .eeprom	00000100 Sbox
00810103 l     O .eeprom	00000100 Rsbox
00810004 l     O .eeprom	000000ff rcon
00000000 l    df *ABS*	00000000 _clear_bss.o
0001e018 l       .text	00000000 .do_clear_bss_start
0001e016 l       .text	00000000 .do_clear_bss_loop
0001e07a g     F .text	0000001c UART1_putstring
0001ea82 g       .text	00000036 .hidden __epilogue_restores__
0001e0e0 g     F .text	00000010 UART0_flush
0001e00e g       .text	00000000 __trampolines_start
0001eb24 g       .text	00000000 _etext
0001e694 g     F .text	00000194 AES128_ECB_encrypt
008001b4 g     O .bss	00000100 sbox
0001e10c g     F .text	0000007c boot_firmware
0001e0c6 g     F .text	0000000c UART0_data_available
0001eb24 g       *ABS*	00000000 __data_load_end
0001e05c g     F .text	0000000e UART1_getchar
0001e00e g       .text	00000000 __trampolines_end
0001eb24 g       *ABS*	00000000 __data_load_start
0001e00e g       .text	00000000 __dtors_end
0001e096 g     F .text	00000022 UART0_init
008004b3 g       .bss	00000000 __bss_end
0001e000 g     F .text	0000000e __Init
0001e272 g     F .text	000000ac program_flash
0001e0d2 g     F .text	0000000e UART0_getchar
0001eb02 g       .text	00000000 eeprom_update_r18
0001e01e g     F .text	00000002 __jumpMain
0001e00e g       .text	00000010 .hidden __do_clear_bss
00810303 g       .eeprom	00000000 __eeprom_end
0001eab8 g     F .text	00000010 eeprom_read_byte
0001e0f0 g     F .text	0000001c UART0_putstring
00810000 g     O .eeprom	00000002 fw_version
0001eb00 g     F .text	00000024 eeprom_update_byte
0001ead4 g     F .text	0000000c eeprom_update_word
0001e042 g     F .text	0000000e UART1_putchar
0001e00e g       .text	00000000 __ctors_start
0001e31e g     F .text	000000cc load_firmware
0001eae0 g     F .text	00000020 eeprom_read_block
0001e00e g     F .text	00000000 __do_copy_data
00800100 g       .bss	00000000 __bss_start
0001ea08 g     F .text	00000042 main
0001e828 g     F .text	000001e0 AES128_ECB_decrypt
008002b4 g     O .bss	000000ff Rcon
0001e00e g       .text	00000000 __dtors_start
0001e00e g       .text	00000000 __ctors_end
00810002 g     O .eeprom	00000002 fw_size
0001e21e g     F .text	00000054 read_frame
00800100 g       .data	00000000 _edata
008004b3 g       .bss	00000000 _end
0001eae4 g       .text	00000000 eeprom_read_blraw
0001e050 g     F .text	0000000c UART1_data_available
0001e0b8 g     F .text	0000000e UART0_putchar
0001e188 g     F .text	00000096 readback
0001e06a g     F .text	00000010 UART1_flush
0001e020 g     F .text	00000022 UART1_init
008003b3 g     O .bss	00000100 rsbox
0001eac8 g     F .text	0000000c eeprom_read_word
0001ea4a g       .text	00000038 .hidden __prologue_saves__



Disassembly of section .text:

0001e000 <__Init>:
   1e000:	14 be       	out	0x34, r1	; 52
   1e002:	88 e1       	ldi	r24, 0x18	; 24
   1e004:	80 93 60 00 	sts	0x0060, r24
   1e008:	10 92 60 00 	sts	0x0060, r1
   1e00c:	00 c0       	rjmp	.+0      	; 0x1e00e <__do_copy_data>

0001e00e <__do_copy_data>:
   1e00e:	24 e0       	ldi	r18, 0x04	; 4
   1e010:	a0 e0       	ldi	r26, 0x00	; 0
   1e012:	b1 e0       	ldi	r27, 0x01	; 1
   1e014:	01 c0       	rjmp	.+2      	; 0x1e018 <.do_clear_bss_start>

0001e016 <.do_clear_bss_loop>:
   1e016:	1d 92       	st	X+, r1

0001e018 <.do_clear_bss_start>:
   1e018:	a3 3b       	cpi	r26, 0xB3	; 179
   1e01a:	b2 07       	cpc	r27, r18
   1e01c:	e1 f7       	brne	.-8      	; 0x1e016 <.do_clear_bss_loop>

0001e01e <__jumpMain>:
   1e01e:	f4 c4       	rjmp	.+2536   	; 0x1ea08 <main>

0001e020 <UART1_init>:
   1e020:	10 92 cd 00 	sts	0x00CD, r1
   1e024:	8a e0       	ldi	r24, 0x0A	; 10
   1e026:	80 93 cc 00 	sts	0x00CC, r24
   1e02a:	e8 ec       	ldi	r30, 0xC8	; 200
   1e02c:	f0 e0       	ldi	r31, 0x00	; 0
   1e02e:	80 81       	ld	r24, Z
   1e030:	8d 7f       	andi	r24, 0xFD	; 253
   1e032:	80 83       	st	Z, r24
   1e034:	88 e1       	ldi	r24, 0x18	; 24
   1e036:	80 93 c9 00 	sts	0x00C9, r24
   1e03a:	86 e0       	ldi	r24, 0x06	; 6
   1e03c:	80 93 ca 00 	sts	0x00CA, r24
   1e040:	08 95       	ret

0001e042 <UART1_putchar>:
   1e042:	90 91 c8 00 	lds	r25, 0x00C8
   1e046:	95 ff       	sbrs	r25, 5
   1e048:	fc cf       	rjmp	.-8      	; 0x1e042 <UART1_putchar>
   1e04a:	80 93 ce 00 	sts	0x00CE, r24
   1e04e:	08 95       	ret

0001e050 <UART1_data_available>:
   1e050:	80 91 c8 00 	lds	r24, 0x00C8
   1e054:	88 1f       	adc	r24, r24
   1e056:	88 27       	eor	r24, r24
   1e058:	88 1f       	adc	r24, r24
   1e05a:	08 95       	ret

0001e05c <UART1_getchar>:
   1e05c:	80 91 c8 00 	lds	r24, 0x00C8
   1e060:	87 ff       	sbrs	r24, 7
   1e062:	fc cf       	rjmp	.-8      	; 0x1e05c <UART1_getchar>
   1e064:	80 91 ce 00 	lds	r24, 0x00CE
   1e068:	08 95       	ret

0001e06a <UART1_flush>:
   1e06a:	80 91 c8 00 	lds	r24, 0x00C8
   1e06e:	87 ff       	sbrs	r24, 7
   1e070:	03 c0       	rjmp	.+6      	; 0x1e078 <UART1_flush+0xe>
   1e072:	80 91 ce 00 	lds	r24, 0x00CE
   1e076:	f9 cf       	rjmp	.-14     	; 0x1e06a <UART1_flush>
   1e078:	08 95       	ret

0001e07a <UART1_putstring>:
   1e07a:	cf 93       	push	r28
   1e07c:	df 93       	push	r29
   1e07e:	ec 01       	movw	r28, r24
   1e080:	89 91       	ld	r24, Y+
   1e082:	88 23       	and	r24, r24
   1e084:	19 f0       	breq	.+6      	; 0x1e08c <UART1_putstring+0x12>
   1e086:	0e 94 21 f0 	call	0x1e042	; 0x1e042 <UART1_putchar>
   1e08a:	fa cf       	rjmp	.-12     	; 0x1e080 <UART1_putstring+0x6>
   1e08c:	0e 94 21 f0 	call	0x1e042	; 0x1e042 <UART1_putchar>
   1e090:	df 91       	pop	r29
   1e092:	cf 91       	pop	r28
   1e094:	08 95       	ret

0001e096 <UART0_init>:
   1e096:	10 92 c5 00 	sts	0x00C5, r1
   1e09a:	8a e0       	ldi	r24, 0x0A	; 10
   1e09c:	80 93 c4 00 	sts	0x00C4, r24
   1e0a0:	e0 ec       	ldi	r30, 0xC0	; 192
   1e0a2:	f0 e0       	ldi	r31, 0x00	; 0
   1e0a4:	80 81       	ld	r24, Z
   1e0a6:	8d 7f       	andi	r24, 0xFD	; 253
   1e0a8:	80 83       	st	Z, r24
   1e0aa:	88 e1       	ldi	r24, 0x18	; 24
   1e0ac:	80 93 c1 00 	sts	0x00C1, r24
   1e0b0:	86 e0       	ldi	r24, 0x06	; 6
   1e0b2:	80 93 c2 00 	sts	0x00C2, r24
   1e0b6:	08 95       	ret

0001e0b8 <UART0_putchar>:
   1e0b8:	90 91 c0 00 	lds	r25, 0x00C0
   1e0bc:	95 ff       	sbrs	r25, 5
   1e0be:	fc cf       	rjmp	.-8      	; 0x1e0b8 <UART0_putchar>
   1e0c0:	80 93 c6 00 	sts	0x00C6, r24
   1e0c4:	08 95       	ret

0001e0c6 <UART0_data_available>:
   1e0c6:	80 91 c0 00 	lds	r24, 0x00C0
   1e0ca:	88 1f       	adc	r24, r24
   1e0cc:	88 27       	eor	r24, r24
   1e0ce:	88 1f       	adc	r24, r24
   1e0d0:	08 95       	ret

0001e0d2 <UART0_getchar>:
   1e0d2:	80 91 c0 00 	lds	r24, 0x00C0
   1e0d6:	87 ff       	sbrs	r24, 7
   1e0d8:	fc cf       	rjmp	.-8      	; 0x1e0d2 <UART0_getchar>
   1e0da:	80 91 c6 00 	lds	r24, 0x00C6
   1e0de:	08 95       	ret

0001e0e0 <UART0_flush>:
   1e0e0:	80 91 c0 00 	lds	r24, 0x00C0
   1e0e4:	87 ff       	sbrs	r24, 7
   1e0e6:	03 c0       	rjmp	.+6      	; 0x1e0ee <UART0_flush+0xe>
   1e0e8:	80 91 c6 00 	lds	r24, 0x00C6
   1e0ec:	f9 cf       	rjmp	.-14     	; 0x1e0e0 <UART0_flush>
   1e0ee:	08 95       	ret

0001e0f0 <UART0_putstring>:
   1e0f0:	cf 93       	push	r28
   1e0f2:	df 93       	push	r29
   1e0f4:	ec 01       	movw	r28, r24
   1e0f6:	89 91       	ld	r24, Y+
   1e0f8:	88 23       	and	r24, r24
   1e0fa:	19 f0       	breq	.+6      	; 0x1e102 <UART0_putstring+0x12>
   1e0fc:	0e 94 5c f0 	call	0x1e0b8	; 0x1e0b8 <UART0_putchar>
   1e100:	fa cf       	rjmp	.-12     	; 0x1e0f6 <UART0_putstring+0x6>
   1e102:	0e 94 5c f0 	call	0x1e0b8	; 0x1e0b8 <UART0_putchar>
   1e106:	df 91       	pop	r29
   1e108:	cf 91       	pop	r28
   1e10a:	08 95       	ret

0001e10c <boot_firmware>:
   1e10c:	cf 92       	push	r12
   1e10e:	df 92       	push	r13
   1e110:	ef 92       	push	r14
   1e112:	ff 92       	push	r15
   1e114:	cf 93       	push	r28
   1e116:	9f e0       	ldi	r25, 0x0F	; 15
   1e118:	88 e1       	ldi	r24, 0x18	; 24
   1e11a:	0f b6       	in	r0, 0x3f	; 63
   1e11c:	f8 94       	cli
   1e11e:	a8 95       	wdr
   1e120:	80 93 60 00 	sts	0x0060, r24
   1e124:	0f be       	out	0x3f, r0	; 63
   1e126:	90 93 60 00 	sts	0x0060, r25
   1e12a:	82 e0       	ldi	r24, 0x02	; 2
   1e12c:	90 e0       	ldi	r25, 0x00	; 0
   1e12e:	0e 94 64 f5 	call	0x1eac8	; 0x1eac8 <eeprom_read_word>
   1e132:	6c 01       	movw	r12, r24
   1e134:	e1 2c       	mov	r14, r1
   1e136:	f1 2c       	mov	r15, r1
   1e138:	c1 14       	cp	r12, r1
   1e13a:	d1 04       	cpc	r13, r1
   1e13c:	e1 04       	cpc	r14, r1
   1e13e:	f1 04       	cpc	r15, r1
   1e140:	09 f4       	brne	.+2      	; 0x1e144 <boot_firmware+0x38>
   1e142:	ff cf       	rjmp	.-2      	; 0x1e142 <boot_firmware+0x36>
   1e144:	a8 95       	wdr
   1e146:	eb be       	out	0x3b, r14	; 59
   1e148:	f6 01       	movw	r30, r12
   1e14a:	c7 91       	elpm	r28, Z+
   1e14c:	8c 2f       	mov	r24, r28
   1e14e:	0e 94 5c f0 	call	0x1e0b8	; 0x1e0b8 <UART0_putchar>
   1e152:	8f ef       	ldi	r24, 0xFF	; 255
   1e154:	c8 1a       	sub	r12, r24
   1e156:	d8 0a       	sbc	r13, r24
   1e158:	e8 0a       	sbc	r14, r24
   1e15a:	f8 0a       	sbc	r15, r24
   1e15c:	c1 11       	cpse	r28, r1
   1e15e:	f3 cf       	rjmp	.-26     	; 0x1e146 <boot_firmware+0x3a>
   1e160:	a8 95       	wdr
   1e162:	0f b6       	in	r0, 0x3f	; 63
   1e164:	f8 94       	cli
   1e166:	a8 95       	wdr
   1e168:	80 91 60 00 	lds	r24, 0x0060
   1e16c:	88 61       	ori	r24, 0x18	; 24
   1e16e:	80 93 60 00 	sts	0x0060, r24
   1e172:	10 92 60 00 	sts	0x0060, r1
   1e176:	0f be       	out	0x3f, r0	; 63
   1e178:	0c 94 00 00 	jmp	0	; 0x0 <__tmp_reg__>
   1e17c:	cf 91       	pop	r28
   1e17e:	ff 90       	pop	r15
   1e180:	ef 90       	pop	r14
   1e182:	df 90       	pop	r13
   1e184:	cf 90       	pop	r12
   1e186:	08 95       	ret

0001e188 <readback>:
   1e188:	9f e0       	ldi	r25, 0x0F	; 15
   1e18a:	88 e1       	ldi	r24, 0x18	; 24
   1e18c:	0f b6       	in	r0, 0x3f	; 63
   1e18e:	f8 94       	cli
   1e190:	a8 95       	wdr
   1e192:	80 93 60 00 	sts	0x0060, r24
   1e196:	0f be       	out	0x3f, r0	; 63
   1e198:	90 93 60 00 	sts	0x0060, r25
   1e19c:	0e 94 2e f0 	call	0x1e05c	; 0x1e05c <UART1_getchar>
   1e1a0:	c8 2e       	mov	r12, r24
   1e1a2:	d1 2c       	mov	r13, r1
   1e1a4:	e1 2c       	mov	r14, r1
   1e1a6:	f1 2c       	mov	r15, r1
   1e1a8:	fc 2c       	mov	r15, r12
   1e1aa:	ee 24       	eor	r14, r14
   1e1ac:	dd 24       	eor	r13, r13
   1e1ae:	cc 24       	eor	r12, r12
   1e1b0:	0e 94 2e f0 	call	0x1e05c	; 0x1e05c <UART1_getchar>
   1e1b4:	e8 2a       	or	r14, r24
   1e1b6:	0e 94 2e f0 	call	0x1e05c	; 0x1e05c <UART1_getchar>
   1e1ba:	c8 2f       	mov	r28, r24
   1e1bc:	0e 94 2e f0 	call	0x1e05c	; 0x1e05c <UART1_getchar>
   1e1c0:	c8 2a       	or	r12, r24
   1e1c2:	dc 2a       	or	r13, r28
   1e1c4:	a8 95       	wdr
   1e1c6:	0e 94 2e f0 	call	0x1e05c	; 0x1e05c <UART1_getchar>
   1e1ca:	88 2e       	mov	r8, r24
   1e1cc:	91 2c       	mov	r9, r1
   1e1ce:	a1 2c       	mov	r10, r1
   1e1d0:	b1 2c       	mov	r11, r1
   1e1d2:	b8 2c       	mov	r11, r8
   1e1d4:	aa 24       	eor	r10, r10
   1e1d6:	99 24       	eor	r9, r9
   1e1d8:	88 24       	eor	r8, r8
   1e1da:	0e 94 2e f0 	call	0x1e05c	; 0x1e05c <UART1_getchar>
   1e1de:	a8 2a       	or	r10, r24
   1e1e0:	0e 94 2e f0 	call	0x1e05c	; 0x1e05c <UART1_getchar>
   1e1e4:	c8 2f       	mov	r28, r24
   1e1e6:	0e 94 2e f0 	call	0x1e05c	; 0x1e05c <UART1_getchar>
   1e1ea:	88 2a       	or	r8, r24
   1e1ec:	9c 2a       	or	r9, r28
   1e1ee:	a8 95       	wdr
   1e1f0:	8c 0c       	add	r8, r12
   1e1f2:	9d 1c       	adc	r9, r13
   1e1f4:	ae 1c       	adc	r10, r14
   1e1f6:	bf 1c       	adc	r11, r15
   1e1f8:	c8 14       	cp	r12, r8
   1e1fa:	d9 04       	cpc	r13, r9
   1e1fc:	ea 04       	cpc	r14, r10
   1e1fe:	fb 04       	cpc	r15, r11
   1e200:	68 f4       	brcc	.+26     	; 0x1e21c <readback+0x94>
   1e202:	eb be       	out	0x3b, r14	; 59
   1e204:	f6 01       	movw	r30, r12
   1e206:	87 91       	elpm	r24, Z+
   1e208:	a8 95       	wdr
   1e20a:	0e 94 21 f0 	call	0x1e042	; 0x1e042 <UART1_putchar>
   1e20e:	a8 95       	wdr
   1e210:	8f ef       	ldi	r24, 0xFF	; 255
   1e212:	c8 1a       	sub	r12, r24
   1e214:	d8 0a       	sbc	r13, r24
   1e216:	e8 0a       	sbc	r14, r24
   1e218:	f8 0a       	sbc	r15, r24
   1e21a:	ee cf       	rjmp	.-36     	; 0x1e1f8 <readback+0x70>
   1e21c:	ff cf       	rjmp	.-2      	; 0x1e21c <readback+0x94>

0001e21e <read_frame>:
; r14:r15 has array indicies (or start index)
; r16:r17 has the other
; r24 is first return reg
   1e21e:	a0 e0       	ldi	r26, 0x00	    ; r26 = 0
   1e220:	b0 e0       	ldi	r27, 0x00	    ; r27 = 0
   1e222:	e5 e1       	ldi	r30, 0x15	    ; r30 = 21
   1e224:	f1 ef       	ldi	r31, 0xF1	    ; r31 = 241
   1e226:	0c 94 2f f5 	jmp	0x1ea5e	; 0x1ea5e <__prologue_saves__+0x14>
   1e22a:	8c 01       	movw	r16, r24    ; r16 has 2B r24
   1e22c:	7b 01       	movw	r14, r22    ; r14 has 2B r22
   1e22e:	0e 94 2e f0 	call	0x1e05c	; 0x1e05c <UART1_getchar>
   1e232:	c8 2f       	mov	r28, r24        ; r28 = r24
   1e234:	d0 e0       	ldi	r29, 0x00	    ; r29 = 0 
   1e236:	dc 2f       	mov	r29, r28        ; r29 = r28
   1e238:	cc 27       	eor	r28, r28        ; r28 = 0
   1e23a:	0e 94 2e f0 	call	0x1e05c	; 0x1e05c <UART1_getchar>
   1e23e:	c8 0f       	add	r28, r24 
   1e240:	d1 1d       	adc	r29, r1         ; carry with 0 reg?
   1e242:	c1 2c       	mov	r12, r1         ; r12 = 0
   1e244:	d1 2c       	mov	r13, r1         ; r13 = 0
;for (int i = 0; i < frame_length; i++) {
; r12:r13 has data index
   1e246:	a8 95       	wdr                 ; <---------------------.
   1e248:	0e 94 2e f0 	call	0x1e05c	; 0x1e05c <UART1_getchar>   |
   1e24c:	f6 01       	movw	r30, r12    ; move index to address |
   1e24e:	ee 0d       	add	r30, r14        ; add array inedex      |
   1e250:	ff 1d       	adc	r31, r15        ; ^                     |
   1e252:	e0 0f       	add	r30, r16        ; add start offset      |
   1e254:	f1 1f       	adc	r31, r17        ; ^                     |
   1e256:	80 83       	st	Z, r24          ; store value in array  |
   1e258:	8f ef       	ldi	r24, 0xFF	    ; r24 = 255             |
   1e25a:	c8 1a       	sub	r12, r24        ; increment index       |
   1e25c:	d8 0a       	sbc	r13, r24        ; ^                     |
   1e25e:	80 e1       	ldi	r24, 0x10	    ; r24 = 16              |
   1e260:	c8 16       	cp	r12, r24        ; compare index to 16   |
   1e262:	d1 04       	cpc	r13, r1         ; ^                     |
   1e264:	81 f7       	brne	.-32    ; 0x1e246 <read_frame+0x28>-`
;}                                          
   1e266:	ce 01       	movw	r24, r28    ; put return value in return reg
   1e268:	cd b7       	in	r28, 0x3d	; 61
   1e26a:	de b7       	in	r29, 0x3e	; 62
   1e26c:	e8 e0       	ldi	r30, 0x08	; 8
   1e26e:	0c 94 4b f5 	jmp	0x1ea96	; 0x1ea96 <__epilogue_restores__+0x14>

0001e272 <program_flash>:
   1e272:	8f 92       	push	r8
   1e274:	9f 92       	push	r9
   1e276:	af 92       	push	r10
   1e278:	bf 92       	push	r11
   1e27a:	ef 92       	push	r14
   1e27c:	ff 92       	push	r15
   1e27e:	07 b6       	in	r0, 0x37	; 55
   1e280:	00 fc       	sbrc	r0, 0
   1e282:	fd cf       	rjmp	.-6      	; 0x1e27e <program_flash+0xc>
   1e284:	f9 99       	sbic	0x1f, 1	; 31
   1e286:	fe cf       	rjmp	.-4      	; 0x1e284 <program_flash+0x12>
   1e288:	23 e0       	ldi	r18, 0x03	; 3
   1e28a:	fb 01       	movw	r30, r22
   1e28c:	80 93 5b 00 	sts	0x005B, r24
   1e290:	20 93 57 00 	sts	0x0057, r18
   1e294:	e8 95       	spm
   1e296:	4b 01       	movw	r8, r22
   1e298:	5c 01       	movw	r10, r24
   1e29a:	20 e0       	ldi	r18, 0x00	; 0
   1e29c:	30 e0       	ldi	r19, 0x00	; 0
   1e29e:	a1 e0       	ldi	r26, 0x01	; 1
   1e2a0:	fa 01       	movw	r30, r20
   1e2a2:	e2 0f       	add	r30, r18
   1e2a4:	f3 1f       	adc	r31, r19
   1e2a6:	b0 81       	ld	r27, Z
   1e2a8:	e1 81       	ldd	r30, Z+1	; 0x01
   1e2aa:	f0 e0       	ldi	r31, 0x00	; 0
   1e2ac:	fe 2f       	mov	r31, r30
   1e2ae:	ee 27       	eor	r30, r30
   1e2b0:	7f 01       	movw	r14, r30
   1e2b2:	eb 0e       	add	r14, r27
   1e2b4:	f1 1c       	adc	r15, r1
   1e2b6:	07 b6       	in	r0, 0x37	; 55
   1e2b8:	00 fc       	sbrc	r0, 0
   1e2ba:	fd cf       	rjmp	.-6      	; 0x1e2b6 <program_flash+0x44>
   1e2bc:	f9 99       	sbic	0x1f, 1	; 31
   1e2be:	fe cf       	rjmp	.-4      	; 0x1e2bc <program_flash+0x4a>
   1e2c0:	07 01       	movw	r0, r14
   1e2c2:	f4 01       	movw	r30, r8
   1e2c4:	a0 92 5b 00 	sts	0x005B, r10
   1e2c8:	a0 93 57 00 	sts	0x0057, r26
   1e2cc:	e8 95       	spm
   1e2ce:	11 24       	eor	r1, r1
   1e2d0:	2e 5f       	subi	r18, 0xFE	; 254
   1e2d2:	3f 4f       	sbci	r19, 0xFF	; 255
   1e2d4:	e2 e0       	ldi	r30, 0x02	; 2
   1e2d6:	8e 0e       	add	r8, r30
   1e2d8:	91 1c       	adc	r9, r1
   1e2da:	a1 1c       	adc	r10, r1
   1e2dc:	b1 1c       	adc	r11, r1
   1e2de:	21 15       	cp	r18, r1
   1e2e0:	e1 e0       	ldi	r30, 0x01	; 1
   1e2e2:	3e 07       	cpc	r19, r30
   1e2e4:	e9 f6       	brne	.-70     	; 0x1e2a0 <program_flash+0x2e>
   1e2e6:	07 b6       	in	r0, 0x37	; 55
   1e2e8:	00 fc       	sbrc	r0, 0
   1e2ea:	fd cf       	rjmp	.-6      	; 0x1e2e6 <program_flash+0x74>
   1e2ec:	f9 99       	sbic	0x1f, 1	; 31
   1e2ee:	fe cf       	rjmp	.-4      	; 0x1e2ec <program_flash+0x7a>
   1e2f0:	25 e0       	ldi	r18, 0x05	; 5
   1e2f2:	fb 01       	movw	r30, r22
   1e2f4:	80 93 5b 00 	sts	0x005B, r24
   1e2f8:	20 93 57 00 	sts	0x0057, r18
   1e2fc:	e8 95       	spm
   1e2fe:	07 b6       	in	r0, 0x37	; 55
   1e300:	00 fc       	sbrc	r0, 0
   1e302:	fd cf       	rjmp	.-6      	; 0x1e2fe <program_flash+0x8c>
   1e304:	f9 99       	sbic	0x1f, 1	; 31
   1e306:	fe cf       	rjmp	.-4      	; 0x1e304 <program_flash+0x92>
   1e308:	81 e1       	ldi	r24, 0x11	; 17
   1e30a:	80 93 57 00 	sts	0x0057, r24
   1e30e:	e8 95       	spm
   1e310:	ff 90       	pop	r15
   1e312:	ef 90       	pop	r14
   1e314:	bf 90       	pop	r11
   1e316:	af 90       	pop	r10
   1e318:	9f 90       	pop	r9
   1e31a:	8f 90       	pop	r8
   1e31c:	08 95       	ret

0001e31e <load_firmware>:
   1e31e:	a0 e0       	ldi	r26, 0x00	; 0
   1e320:	b1 e0       	ldi	r27, 0x01	; 1
   1e322:	e5 e9       	ldi	r30, 0x95	; 149
   1e324:	f1 ef       	ldi	r31, 0xF1	; 241
   1e326:	0c 94 31 f5 	jmp	0x1ea62	; 0x1ea62 <__prologue_saves__+0x18>
   1e32a:	9f e0       	ldi	r25, 0x0F	; 15
   1e32c:	88 e1       	ldi	r24, 0x18	; 24
   1e32e:	0f b6       	in	r0, 0x3f	; 63
   1e330:	f8 94       	cli
   1e332:	a8 95       	wdr
   1e334:	80 93 60 00 	sts	0x0060, r24
   1e338:	0f be       	out	0x3f, r0	; 63
   1e33a:	90 93 60 00 	sts	0x0060, r25
   1e33e:	0e 94 28 f0 	call	0x1e050	; 0x1e050 <UART1_data_available>
   1e342:	81 11       	cpse	r24, r1
   1e344:	01 c0       	rjmp	.+2      	; 0x1e348 <load_firmware+0x2a>
   1e346:	fb cf       	rjmp	.-10     	; 0x1e33e <load_firmware+0x20>
   1e348:	0e 94 2e f0 	call	0x1e05c	; 0x1e05c <UART1_getchar>
   1e34c:	08 2f       	mov	r16, r24
   1e34e:	10 e0       	ldi	r17, 0x00	; 0
   1e350:	10 2f       	mov	r17, r16
   1e352:	00 27       	eor	r16, r16
   1e354:	0e 94 2e f0 	call	0x1e05c	; 0x1e05c <UART1_getchar>
   1e358:	08 2b       	or	r16, r24
   1e35a:	0e 94 2e f0 	call	0x1e05c	; 0x1e05c <UART1_getchar>
   1e35e:	e8 2e       	mov	r14, r24
   1e360:	f1 2c       	mov	r15, r1
   1e362:	fe 2c       	mov	r15, r14
   1e364:	ee 24       	eor	r14, r14
   1e366:	0e 94 2e f0 	call	0x1e05c	; 0x1e05c <UART1_getchar>
   1e36a:	e8 2a       	or	r14, r24
   1e36c:	01 15       	cp	r16, r1
   1e36e:	11 05       	cpc	r17, r1
   1e370:	89 f0       	breq	.+34     	; 0x1e394 <load_firmware+0x76>
   1e372:	80 e0       	ldi	r24, 0x00	; 0
   1e374:	90 e0       	ldi	r25, 0x00	; 0
   1e376:	0e 94 64 f5 	call	0x1eac8	; 0x1eac8 <eeprom_read_word>
   1e37a:	08 17       	cp	r16, r24
   1e37c:	19 07       	cpc	r17, r25
   1e37e:	20 f4       	brcc	.+8      	; 0x1e388 <load_firmware+0x6a>
   1e380:	81 e0       	ldi	r24, 0x01	; 1
   1e382:	0e 94 21 f0 	call	0x1e042	; 0x1e042 <UART1_putchar>
   1e386:	ff cf       	rjmp	.-2      	; 0x1e386 <load_firmware+0x68>
   1e388:	a8 95       	wdr
   1e38a:	b8 01       	movw	r22, r16
   1e38c:	80 e0       	ldi	r24, 0x00	; 0
   1e38e:	90 e0       	ldi	r25, 0x00	; 0
   1e390:	0e 94 6a f5 	call	0x1ead4	; 0x1ead4 <eeprom_update_word>
   1e394:	a8 95       	wdr
   1e396:	b7 01       	movw	r22, r14
   1e398:	82 e0       	ldi	r24, 0x02	; 2
   1e39a:	90 e0       	ldi	r25, 0x00	; 0
   1e39c:	0e 94 6a f5 	call	0x1ead4	; 0x1ead4 <eeprom_update_word>
   1e3a0:	a8 95       	wdr
   1e3a2:	80 e0       	ldi	r24, 0x00	; 0
   1e3a4:	0e 94 21 f0 	call	0x1e042	; 0x1e042 <UART1_putchar>
   1e3a8:	00 e0       	ldi	r16, 0x00	; 0
   1e3aa:	10 e0       	ldi	r17, 0x00	; 0
; JUMP START
   1e3ac:	a8 95       	wdr
   1e3ae:	60 e0       	ldi	r22, 0x00	; 0
   1e3b0:	70 e0       	ldi	r23, 0x00	; 0
   1e3b2:	ce 01       	movw	r24, r28
   1e3b4:	01 96       	adiw	r24, 0x01	; 1
   1e3b6:	0e 94 0f f1 	call	0x1e21e	; 0x1e21e <read_frame>
   1e3ba:	a8 95       	wdr
   1e3bc:	b8 01       	movw	r22, r16
   1e3be:	80 e0       	ldi	r24, 0x00	; 0
   1e3c0:	90 e0       	ldi	r25, 0x00	; 0
   1e3c2:	ae 01       	movw	r20, r28
   1e3c4:	4f 5f       	subi	r20, 0xFF	; 255
   1e3c6:	5f 4f       	sbci	r21, 0xFF	; 255
   1e3c8:	0e 94 39 f1 	call	0x1e272	; 0x1e272 <program_flash>
   1e3cc:	13 95       	inc	r17
   1e3ce:	80 e5       	ldi	r24, 0x50	; 80
   1e3d0:	0e 94 5c f0 	call	0x1e0b8	; 0x1e0b8 <UART0_putchar>
   1e3d4:	81 2f       	mov	r24, r17
   1e3d6:	0e 94 5c f0 	call	0x1e0b8	; 0x1e0b8 <UART0_putchar>
   1e3da:	80 e0       	ldi	r24, 0x00	; 0
   1e3dc:	0e 94 5c f0 	call	0x1e0b8	; 0x1e0b8 <UART0_putchar>
   1e3e0:	a8 95       	wdr
   1e3e2:	80 e0       	ldi	r24, 0x00	; 0
   1e3e4:	0e 94 21 f0 	call	0x1e042	; 0x1e042 <UART1_putchar>
   1e3e8:	e1 cf       	rjmp	.-62     	; 0x1e3ac <load_firmware+0x8e>

0001e3ea <AddRoundKey>:
   1e3ea:	cf 93       	push	r28
   1e3ec:	df 93       	push	r29
   1e3ee:	60 91 b2 01 	lds	r22, 0x01B2
   1e3f2:	70 91 b3 01 	lds	r23, 0x01B3
   1e3f6:	90 e1       	ldi	r25, 0x10	; 16
   1e3f8:	89 9f       	mul	r24, r25
   1e3fa:	e0 01       	movw	r28, r0
   1e3fc:	11 24       	eor	r1, r1
   1e3fe:	40 e0       	ldi	r20, 0x00	; 0
   1e400:	50 e0       	ldi	r21, 0x00	; 0
   1e402:	fa 01       	movw	r30, r20
   1e404:	ec 0f       	add	r30, r28
   1e406:	fd 1f       	adc	r31, r29
   1e408:	ee 5f       	subi	r30, 0xFE	; 254
   1e40a:	fe 4f       	sbci	r31, 0xFE	; 254
   1e40c:	20 e0       	ldi	r18, 0x00	; 0
   1e40e:	30 e0       	ldi	r19, 0x00	; 0
   1e410:	db 01       	movw	r26, r22
   1e412:	a2 0f       	add	r26, r18
   1e414:	b3 1f       	adc	r27, r19
   1e416:	91 91       	ld	r25, Z+
   1e418:	8c 91       	ld	r24, X
   1e41a:	98 27       	eor	r25, r24
   1e41c:	9c 93       	st	X, r25
   1e41e:	2f 5f       	subi	r18, 0xFF	; 255
   1e420:	3f 4f       	sbci	r19, 0xFF	; 255
   1e422:	24 30       	cpi	r18, 0x04	; 4
   1e424:	31 05       	cpc	r19, r1
   1e426:	a1 f7       	brne	.-24     	; 0x1e410 <AddRoundKey+0x26>
   1e428:	4c 5f       	subi	r20, 0xFC	; 252
   1e42a:	5f 4f       	sbci	r21, 0xFF	; 255
   1e42c:	6c 5f       	subi	r22, 0xFC	; 252
   1e42e:	7f 4f       	sbci	r23, 0xFF	; 255
   1e430:	40 31       	cpi	r20, 0x10	; 16
   1e432:	51 05       	cpc	r21, r1
   1e434:	31 f7       	brne	.-52     	; 0x1e402 <AddRoundKey+0x18>
   1e436:	df 91       	pop	r29
   1e438:	cf 91       	pop	r28
   1e43a:	08 95       	ret

0001e43c <ShiftRows>:
   1e43c:	e0 91 b2 01 	lds	r30, 0x01B2
   1e440:	f0 91 b3 01 	lds	r31, 0x01B3
   1e444:	81 81       	ldd	r24, Z+1	; 0x01
   1e446:	95 81       	ldd	r25, Z+5	; 0x05
   1e448:	91 83       	std	Z+1, r25	; 0x01
   1e44a:	91 85       	ldd	r25, Z+9	; 0x09
   1e44c:	95 83       	std	Z+5, r25	; 0x05
   1e44e:	95 85       	ldd	r25, Z+13	; 0x0d
   1e450:	91 87       	std	Z+9, r25	; 0x09
   1e452:	85 87       	std	Z+13, r24	; 0x0d
   1e454:	82 81       	ldd	r24, Z+2	; 0x02
   1e456:	92 85       	ldd	r25, Z+10	; 0x0a
   1e458:	92 83       	std	Z+2, r25	; 0x02
   1e45a:	82 87       	std	Z+10, r24	; 0x0a
   1e45c:	86 81       	ldd	r24, Z+6	; 0x06
   1e45e:	96 85       	ldd	r25, Z+14	; 0x0e
   1e460:	96 83       	std	Z+6, r25	; 0x06
   1e462:	86 87       	std	Z+14, r24	; 0x0e
   1e464:	83 81       	ldd	r24, Z+3	; 0x03
   1e466:	97 85       	ldd	r25, Z+15	; 0x0f
   1e468:	93 83       	std	Z+3, r25	; 0x03
   1e46a:	93 85       	ldd	r25, Z+11	; 0x0b
   1e46c:	97 87       	std	Z+15, r25	; 0x0f
   1e46e:	97 81       	ldd	r25, Z+7	; 0x07
   1e470:	93 87       	std	Z+11, r25	; 0x0b
   1e472:	87 83       	std	Z+7, r24	; 0x07
   1e474:	08 95       	ret

0001e476 <xtime>:
   1e476:	98 2f       	mov	r25, r24
   1e478:	99 1f       	adc	r25, r25
   1e47a:	99 27       	eor	r25, r25
   1e47c:	99 1f       	adc	r25, r25
   1e47e:	2b e1       	ldi	r18, 0x1B	; 27
   1e480:	92 9f       	mul	r25, r18
   1e482:	90 2d       	mov	r25, r0
   1e484:	11 24       	eor	r1, r1
   1e486:	88 0f       	add	r24, r24
   1e488:	89 27       	eor	r24, r25
   1e48a:	08 95       	ret

0001e48c <InvSubBytes>:
   1e48c:	20 91 b2 01 	lds	r18, 0x01B2
   1e490:	30 91 b3 01 	lds	r19, 0x01B3
   1e494:	94 e0       	ldi	r25, 0x04	; 4
   1e496:	d9 01       	movw	r26, r18
   1e498:	80 e0       	ldi	r24, 0x00	; 0
   1e49a:	ec 91       	ld	r30, X
   1e49c:	f0 e0       	ldi	r31, 0x00	; 0
   1e49e:	ed 54       	subi	r30, 0x4D	; 77
   1e4a0:	fc 4f       	sbci	r31, 0xFC	; 252
   1e4a2:	40 81       	ld	r20, Z
   1e4a4:	4c 93       	st	X, r20
   1e4a6:	8f 5f       	subi	r24, 0xFF	; 255
   1e4a8:	14 96       	adiw	r26, 0x04	; 4
   1e4aa:	84 30       	cpi	r24, 0x04	; 4
   1e4ac:	b1 f7       	brne	.-20     	; 0x1e49a <InvSubBytes+0xe>
   1e4ae:	91 50       	subi	r25, 0x01	; 1
   1e4b0:	2f 5f       	subi	r18, 0xFF	; 255
   1e4b2:	3f 4f       	sbci	r19, 0xFF	; 255
   1e4b4:	91 11       	cpse	r25, r1
   1e4b6:	ef cf       	rjmp	.-34     	; 0x1e496 <InvSubBytes+0xa>
   1e4b8:	08 95       	ret

0001e4ba <InvShiftRows>:
   1e4ba:	e0 91 b2 01 	lds	r30, 0x01B2
   1e4be:	f0 91 b3 01 	lds	r31, 0x01B3
   1e4c2:	85 85       	ldd	r24, Z+13	; 0x0d
   1e4c4:	91 85       	ldd	r25, Z+9	; 0x09
   1e4c6:	95 87       	std	Z+13, r25	; 0x0d
   1e4c8:	95 81       	ldd	r25, Z+5	; 0x05
   1e4ca:	91 87       	std	Z+9, r25	; 0x09
   1e4cc:	91 81       	ldd	r25, Z+1	; 0x01
   1e4ce:	95 83       	std	Z+5, r25	; 0x05
   1e4d0:	81 83       	std	Z+1, r24	; 0x01
   1e4d2:	82 81       	ldd	r24, Z+2	; 0x02
   1e4d4:	92 85       	ldd	r25, Z+10	; 0x0a
   1e4d6:	92 83       	std	Z+2, r25	; 0x02
   1e4d8:	82 87       	std	Z+10, r24	; 0x0a
   1e4da:	86 81       	ldd	r24, Z+6	; 0x06
   1e4dc:	96 85       	ldd	r25, Z+14	; 0x0e
   1e4de:	96 83       	std	Z+6, r25	; 0x06
   1e4e0:	86 87       	std	Z+14, r24	; 0x0e
   1e4e2:	83 81       	ldd	r24, Z+3	; 0x03
   1e4e4:	97 81       	ldd	r25, Z+7	; 0x07
   1e4e6:	93 83       	std	Z+3, r25	; 0x03
   1e4e8:	93 85       	ldd	r25, Z+11	; 0x0b
   1e4ea:	97 83       	std	Z+7, r25	; 0x07
   1e4ec:	97 85       	ldd	r25, Z+15	; 0x0f
   1e4ee:	93 87       	std	Z+11, r25	; 0x0b
   1e4f0:	87 87       	std	Z+15, r24	; 0x0f
   1e4f2:	08 95       	ret

0001e4f4 <SubBytes>:
   1e4f4:	20 91 b2 01 	lds	r18, 0x01B2
   1e4f8:	30 91 b3 01 	lds	r19, 0x01B3
   1e4fc:	94 e0       	ldi	r25, 0x04	; 4
   1e4fe:	d9 01       	movw	r26, r18
   1e500:	80 e0       	ldi	r24, 0x00	; 0
   1e502:	ec 91       	ld	r30, X
   1e504:	f0 e0       	ldi	r31, 0x00	; 0
   1e506:	ec 54       	subi	r30, 0x4C	; 76
   1e508:	fe 4f       	sbci	r31, 0xFE	; 254
   1e50a:	40 81       	ld	r20, Z
   1e50c:	4c 93       	st	X, r20
   1e50e:	8f 5f       	subi	r24, 0xFF	; 255
   1e510:	14 96       	adiw	r26, 0x04	; 4
   1e512:	84 30       	cpi	r24, 0x04	; 4
   1e514:	b1 f7       	brne	.-20     	; 0x1e502 <SubBytes+0xe>
   1e516:	91 50       	subi	r25, 0x01	; 1
   1e518:	2f 5f       	subi	r18, 0xFF	; 255
   1e51a:	3f 4f       	sbci	r19, 0xFF	; 255
   1e51c:	91 11       	cpse	r25, r1
   1e51e:	ef cf       	rjmp	.-34     	; 0x1e4fe <SubBytes+0xa>
   1e520:	08 95       	ret

0001e522 <KeyExpansion>:
   1e522:	a4 e0       	ldi	r26, 0x04	; 4
   1e524:	b0 e0       	ldi	r27, 0x00	; 0
   1e526:	e7 e9       	ldi	r30, 0x97	; 151
   1e528:	f2 ef       	ldi	r31, 0xF2	; 242
   1e52a:	0c 94 2f f5 	jmp	0x1ea5e	; 0x1ea5e <__prologue_saves__+0x14>
   1e52e:	e0 91 00 01 	lds	r30, 0x0100
   1e532:	f0 91 01 01 	lds	r31, 0x0101
   1e536:	33 96       	adiw	r30, 0x03	; 3
   1e538:	80 e0       	ldi	r24, 0x00	; 0
   1e53a:	90 e0       	ldi	r25, 0x00	; 0
   1e53c:	df 01       	movw	r26, r30
   1e53e:	13 97       	sbiw	r26, 0x03	; 3
   1e540:	2c 91       	ld	r18, X
   1e542:	ac 01       	movw	r20, r24
   1e544:	4e 5f       	subi	r20, 0xFE	; 254
   1e546:	5e 4f       	sbci	r21, 0xFE	; 254
   1e548:	da 01       	movw	r26, r20
   1e54a:	2c 93       	st	X, r18
   1e54c:	9f 01       	movw	r18, r30
   1e54e:	22 50       	subi	r18, 0x02	; 2
   1e550:	31 09       	sbc	r19, r1
   1e552:	d9 01       	movw	r26, r18
   1e554:	2c 91       	ld	r18, X
   1e556:	da 01       	movw	r26, r20
   1e558:	11 96       	adiw	r26, 0x01	; 1
   1e55a:	2c 93       	st	X, r18
   1e55c:	9f 01       	movw	r18, r30
   1e55e:	21 50       	subi	r18, 0x01	; 1
   1e560:	31 09       	sbc	r19, r1
   1e562:	d9 01       	movw	r26, r18
   1e564:	2c 91       	ld	r18, X
   1e566:	da 01       	movw	r26, r20
   1e568:	12 96       	adiw	r26, 0x02	; 2
   1e56a:	2c 93       	st	X, r18
   1e56c:	12 97       	sbiw	r26, 0x02	; 2
   1e56e:	20 81       	ld	r18, Z
   1e570:	13 96       	adiw	r26, 0x03	; 3
   1e572:	2c 93       	st	X, r18
   1e574:	04 96       	adiw	r24, 0x04	; 4
   1e576:	34 96       	adiw	r30, 0x04	; 4
   1e578:	80 31       	cpi	r24, 0x10	; 16
   1e57a:	91 05       	cpc	r25, r1
   1e57c:	f9 f6       	brne	.-66     	; 0x1e53c <KeyExpansion+0x1a>
   1e57e:	e5 e1       	ldi	r30, 0x15	; 21
   1e580:	f1 e0       	ldi	r31, 0x01	; 1
   1e582:	94 e0       	ldi	r25, 0x04	; 4
   1e584:	c9 2e       	mov	r12, r25
   1e586:	d1 2c       	mov	r13, r1
   1e588:	e1 2c       	mov	r14, r1
   1e58a:	f1 2c       	mov	r15, r1
   1e58c:	ae 01       	movw	r20, r28
   1e58e:	4f 5f       	subi	r20, 0xFF	; 255
   1e590:	5f 4f       	sbci	r21, 0xFF	; 255
   1e592:	20 e0       	ldi	r18, 0x00	; 0
   1e594:	30 e0       	ldi	r19, 0x00	; 0
   1e596:	bf 01       	movw	r22, r30
   1e598:	67 50       	subi	r22, 0x07	; 7
   1e59a:	71 09       	sbc	r23, r1
   1e59c:	8b 01       	movw	r16, r22
   1e59e:	02 0f       	add	r16, r18
   1e5a0:	13 1f       	adc	r17, r19
   1e5a2:	d8 01       	movw	r26, r16
   1e5a4:	1c 91       	ld	r17, X
   1e5a6:	da 01       	movw	r26, r20
   1e5a8:	1d 93       	st	X+, r17
   1e5aa:	ad 01       	movw	r20, r26
   1e5ac:	2f 5f       	subi	r18, 0xFF	; 255
   1e5ae:	3f 4f       	sbci	r19, 0xFF	; 255
   1e5b0:	24 30       	cpi	r18, 0x04	; 4
   1e5b2:	31 05       	cpc	r19, r1
   1e5b4:	99 f7       	brne	.-26     	; 0x1e59c <KeyExpansion+0x7a>
   1e5b6:	b7 01       	movw	r22, r14
   1e5b8:	a6 01       	movw	r20, r12
   1e5ba:	43 70       	andi	r20, 0x03	; 3
   1e5bc:	55 27       	eor	r21, r21
   1e5be:	66 27       	eor	r22, r22
   1e5c0:	77 27       	eor	r23, r23
   1e5c2:	45 2b       	or	r20, r21
   1e5c4:	46 2b       	or	r20, r22
   1e5c6:	47 2b       	or	r20, r23
   1e5c8:	51 f5       	brne	.+84     	; 0x1e61e <KeyExpansion+0xfc>
   1e5ca:	29 81       	ldd	r18, Y+1	; 0x01
   1e5cc:	4c 81       	ldd	r20, Y+4	; 0x04
   1e5ce:	6a 81       	ldd	r22, Y+2	; 0x02
   1e5d0:	70 e0       	ldi	r23, 0x00	; 0
   1e5d2:	6c 54       	subi	r22, 0x4C	; 76
   1e5d4:	7e 4f       	sbci	r23, 0xFE	; 254
   1e5d6:	db 01       	movw	r26, r22
   1e5d8:	1c 91       	ld	r17, X
   1e5da:	6b 81       	ldd	r22, Y+3	; 0x03
   1e5dc:	70 e0       	ldi	r23, 0x00	; 0
   1e5de:	6c 54       	subi	r22, 0x4C	; 76
   1e5e0:	7e 4f       	sbci	r23, 0xFE	; 254
   1e5e2:	db 01       	movw	r26, r22
   1e5e4:	3c 91       	ld	r19, X
   1e5e6:	3a 83       	std	Y+2, r19	; 0x02
   1e5e8:	50 e0       	ldi	r21, 0x00	; 0
   1e5ea:	4c 54       	subi	r20, 0x4C	; 76
   1e5ec:	5e 4f       	sbci	r21, 0xFE	; 254
   1e5ee:	da 01       	movw	r26, r20
   1e5f0:	3c 91       	ld	r19, X
   1e5f2:	3b 83       	std	Y+3, r19	; 0x03
   1e5f4:	30 e0       	ldi	r19, 0x00	; 0
   1e5f6:	2c 54       	subi	r18, 0x4C	; 76
   1e5f8:	3e 4f       	sbci	r19, 0xFE	; 254
   1e5fa:	d9 01       	movw	r26, r18
   1e5fc:	2c 91       	ld	r18, X
   1e5fe:	2c 83       	std	Y+4, r18	; 0x04
   1e600:	b7 01       	movw	r22, r14
   1e602:	a6 01       	movw	r20, r12
   1e604:	82 e0       	ldi	r24, 0x02	; 2
   1e606:	76 95       	lsr	r23
   1e608:	67 95       	ror	r22
   1e60a:	57 95       	ror	r21
   1e60c:	47 95       	ror	r20
   1e60e:	8a 95       	dec	r24
   1e610:	d1 f7       	brne	.-12     	; 0x1e606 <KeyExpansion+0xe4>
   1e612:	4c 54       	subi	r20, 0x4C	; 76
   1e614:	5d 4f       	sbci	r21, 0xFD	; 253
   1e616:	da 01       	movw	r26, r20
   1e618:	2c 91       	ld	r18, X
   1e61a:	21 27       	eor	r18, r17
   1e61c:	29 83       	std	Y+1, r18	; 0x01
   1e61e:	af 01       	movw	r20, r30
   1e620:	43 50       	subi	r20, 0x03	; 3
   1e622:	51 09       	sbc	r21, r1
   1e624:	9f 01       	movw	r18, r30
   1e626:	23 51       	subi	r18, 0x13	; 19
   1e628:	31 09       	sbc	r19, r1
   1e62a:	d9 01       	movw	r26, r18
   1e62c:	3c 91       	ld	r19, X
   1e62e:	29 81       	ldd	r18, Y+1	; 0x01
   1e630:	23 27       	eor	r18, r19
   1e632:	da 01       	movw	r26, r20
   1e634:	2c 93       	st	X, r18
   1e636:	4f 5f       	subi	r20, 0xFF	; 255
   1e638:	5f 4f       	sbci	r21, 0xFF	; 255
   1e63a:	9f 01       	movw	r18, r30
   1e63c:	22 51       	subi	r18, 0x12	; 18
   1e63e:	31 09       	sbc	r19, r1
   1e640:	d9 01       	movw	r26, r18
   1e642:	3c 91       	ld	r19, X
   1e644:	2a 81       	ldd	r18, Y+2	; 0x02
   1e646:	23 27       	eor	r18, r19
   1e648:	da 01       	movw	r26, r20
   1e64a:	2c 93       	st	X, r18
   1e64c:	4f 5f       	subi	r20, 0xFF	; 255
   1e64e:	5f 4f       	sbci	r21, 0xFF	; 255
   1e650:	9f 01       	movw	r18, r30
   1e652:	21 51       	subi	r18, 0x11	; 17
   1e654:	31 09       	sbc	r19, r1
   1e656:	d9 01       	movw	r26, r18
   1e658:	3c 91       	ld	r19, X
   1e65a:	2b 81       	ldd	r18, Y+3	; 0x03
   1e65c:	23 27       	eor	r18, r19
   1e65e:	da 01       	movw	r26, r20
   1e660:	2c 93       	st	X, r18
   1e662:	9f 01       	movw	r18, r30
   1e664:	20 51       	subi	r18, 0x10	; 16
   1e666:	31 09       	sbc	r19, r1
   1e668:	d9 01       	movw	r26, r18
   1e66a:	3c 91       	ld	r19, X
   1e66c:	2c 81       	ldd	r18, Y+4	; 0x04
   1e66e:	23 27       	eor	r18, r19
   1e670:	20 83       	st	Z, r18
   1e672:	bf ef       	ldi	r27, 0xFF	; 255
   1e674:	cb 1a       	sub	r12, r27
   1e676:	db 0a       	sbc	r13, r27
   1e678:	eb 0a       	sbc	r14, r27
   1e67a:	fb 0a       	sbc	r15, r27
   1e67c:	34 96       	adiw	r30, 0x04	; 4
   1e67e:	8c e2       	ldi	r24, 0x2C	; 44
   1e680:	c8 16       	cp	r12, r24
   1e682:	d1 04       	cpc	r13, r1
   1e684:	e1 04       	cpc	r14, r1
   1e686:	f1 04       	cpc	r15, r1
   1e688:	09 f0       	breq	.+2      	; 0x1e68c <KeyExpansion+0x16a>
   1e68a:	80 cf       	rjmp	.-256    	; 0x1e58c <KeyExpansion+0x6a>
   1e68c:	24 96       	adiw	r28, 0x04	; 4
   1e68e:	e8 e0       	ldi	r30, 0x08	; 8
   1e690:	0c 94 4b f5 	jmp	0x1ea96	; 0x1ea96 <__epilogue_restores__+0x14>

0001e694 <AES128_ECB_encrypt>:
   1e694:	a6 e0       	ldi	r26, 0x06	; 6
   1e696:	b0 e0       	ldi	r27, 0x00	; 0
   1e698:	e0 e5       	ldi	r30, 0x50	; 80
   1e69a:	f3 ef       	ldi	r31, 0xF3	; 243
   1e69c:	0c 94 25 f5 	jmp	0x1ea4a	; 0x1ea4a <__prologue_saves__>
   1e6a0:	5b 01       	movw	r10, r22
   1e6a2:	5e 83       	std	Y+6, r21	; 0x06
   1e6a4:	4d 83       	std	Y+5, r20	; 0x05
   1e6a6:	9c 01       	movw	r18, r24
   1e6a8:	20 5f       	subi	r18, 0xF0	; 240
   1e6aa:	3f 4f       	sbci	r19, 0xFF	; 255
   1e6ac:	fa 01       	movw	r30, r20
   1e6ae:	dc 01       	movw	r26, r24
   1e6b0:	4d 91       	ld	r20, X+
   1e6b2:	cd 01       	movw	r24, r26
   1e6b4:	41 93       	st	Z+, r20
   1e6b6:	a2 17       	cp	r26, r18
   1e6b8:	b3 07       	cpc	r27, r19
   1e6ba:	c9 f7       	brne	.-14     	; 0x1e6ae <AES128_ECB_encrypt+0x1a>
   1e6bc:	ed 81       	ldd	r30, Y+5	; 0x05
   1e6be:	fe 81       	ldd	r31, Y+6	; 0x06
   1e6c0:	f0 93 b3 01 	sts	0x01B3, r31
   1e6c4:	e0 93 b2 01 	sts	0x01B2, r30
   1e6c8:	84 eb       	ldi	r24, 0xB4	; 180
   1e6ca:	c8 2e       	mov	r12, r24
   1e6cc:	81 e0       	ldi	r24, 0x01	; 1
   1e6ce:	d8 2e       	mov	r13, r24
   1e6d0:	93 eb       	ldi	r25, 0xB3	; 179
   1e6d2:	e9 2e       	mov	r14, r25
   1e6d4:	93 e0       	ldi	r25, 0x03	; 3
   1e6d6:	f9 2e       	mov	r15, r25
   1e6d8:	00 e0       	ldi	r16, 0x00	; 0
   1e6da:	10 e0       	ldi	r17, 0x00	; 0
   1e6dc:	c8 01       	movw	r24, r16
   1e6de:	8d 5f       	subi	r24, 0xFD	; 253
   1e6e0:	9d 4f       	sbci	r25, 0xFD	; 253
   1e6e2:	0e 94 5c f5 	call	0x1eab8	; 0x1eab8 <eeprom_read_byte>
   1e6e6:	d6 01       	movw	r26, r12
   1e6e8:	8d 93       	st	X+, r24
   1e6ea:	6d 01       	movw	r12, r26
   1e6ec:	c8 01       	movw	r24, r16
   1e6ee:	8d 5f       	subi	r24, 0xFD	; 253
   1e6f0:	9e 4f       	sbci	r25, 0xFE	; 254
   1e6f2:	0e 94 5c f5 	call	0x1eab8	; 0x1eab8 <eeprom_read_byte>
   1e6f6:	f7 01       	movw	r30, r14
   1e6f8:	81 93       	st	Z+, r24
   1e6fa:	7f 01       	movw	r14, r30
   1e6fc:	0f 3f       	cpi	r16, 0xFF	; 255
   1e6fe:	11 05       	cpc	r17, r1
   1e700:	49 f0       	breq	.+18     	; 0x1e714 <AES128_ECB_encrypt+0x80>
   1e702:	c8 01       	movw	r24, r16
   1e704:	8c 5f       	subi	r24, 0xFC	; 252
   1e706:	9f 4f       	sbci	r25, 0xFF	; 255
   1e708:	0e 94 5c f5 	call	0x1eab8	; 0x1eab8 <eeprom_read_byte>
   1e70c:	f8 01       	movw	r30, r16
   1e70e:	ec 54       	subi	r30, 0x4C	; 76
   1e710:	fd 4f       	sbci	r31, 0xFD	; 253
   1e712:	80 83       	st	Z, r24
   1e714:	0f 5f       	subi	r16, 0xFF	; 255
   1e716:	1f 4f       	sbci	r17, 0xFF	; 255
   1e718:	01 15       	cp	r16, r1
   1e71a:	f1 e0       	ldi	r31, 0x01	; 1
   1e71c:	1f 07       	cpc	r17, r31
   1e71e:	f1 f6       	brne	.-68     	; 0x1e6dc <AES128_ECB_encrypt+0x48>
   1e720:	b0 92 01 01 	sts	0x0101, r11
   1e724:	a0 92 00 01 	sts	0x0100, r10
   1e728:	0e 94 91 f2 	call	0x1e522	; 0x1e522 <KeyExpansion>
   1e72c:	80 e0       	ldi	r24, 0x00	; 0
   1e72e:	0e 94 f5 f1 	call	0x1e3ea	; 0x1e3ea <AddRoundKey>
   1e732:	91 e0       	ldi	r25, 0x01	; 1
   1e734:	99 83       	std	Y+1, r25	; 0x01
   1e736:	ad 81       	ldd	r26, Y+5	; 0x05
   1e738:	be 81       	ldd	r27, Y+6	; 0x06
   1e73a:	11 96       	adiw	r26, 0x01	; 1
   1e73c:	bb 83       	std	Y+3, r27	; 0x03
   1e73e:	aa 83       	std	Y+2, r26	; 0x02
   1e740:	6d 80       	ldd	r6, Y+5	; 0x05
   1e742:	7e 80       	ldd	r7, Y+6	; 0x06
   1e744:	b2 e0       	ldi	r27, 0x02	; 2
   1e746:	6b 0e       	add	r6, r27
   1e748:	71 1c       	adc	r7, r1
   1e74a:	ad 80       	ldd	r10, Y+5	; 0x05
   1e74c:	be 80       	ldd	r11, Y+6	; 0x06
   1e74e:	e3 e0       	ldi	r30, 0x03	; 3
   1e750:	ae 0e       	add	r10, r30
   1e752:	b1 1c       	adc	r11, r1
   1e754:	8d 80       	ldd	r8, Y+5	; 0x05
   1e756:	9e 80       	ldd	r9, Y+6	; 0x06
   1e758:	f0 e1       	ldi	r31, 0x10	; 16
   1e75a:	8f 0e       	add	r8, r31
   1e75c:	91 1c       	adc	r9, r1
   1e75e:	0e 94 7a f2 	call	0x1e4f4	; 0x1e4f4 <SubBytes>
   1e762:	0e 94 1e f2 	call	0x1e43c	; 0x1e43c <ShiftRows>
   1e766:	ca 80       	ldd	r12, Y+2	; 0x02
   1e768:	db 80       	ldd	r13, Y+3	; 0x03
   1e76a:	73 01       	movw	r14, r6
   1e76c:	85 01       	movw	r16, r10
   1e76e:	2d 80       	ldd	r2, Y+5	; 0x05
   1e770:	3e 80       	ldd	r3, Y+6	; 0x06
   1e772:	d1 01       	movw	r26, r2
   1e774:	4c 90       	ld	r4, X
   1e776:	f6 01       	movw	r30, r12
   1e778:	80 81       	ld	r24, Z
   1e77a:	84 25       	eor	r24, r4
   1e77c:	d8 01       	movw	r26, r16
   1e77e:	5c 90       	ld	r5, X
   1e780:	f7 01       	movw	r30, r14
   1e782:	90 81       	ld	r25, Z
   1e784:	59 26       	eor	r5, r25
   1e786:	58 26       	eor	r5, r24
   1e788:	0e 94 3b f2 	call	0x1e476	; 0x1e476 <xtime>
   1e78c:	84 25       	eor	r24, r4
   1e78e:	85 25       	eor	r24, r5
   1e790:	d1 01       	movw	r26, r2
   1e792:	8c 93       	st	X, r24
   1e794:	f6 01       	movw	r30, r12
   1e796:	90 81       	ld	r25, Z
   1e798:	d7 01       	movw	r26, r14
   1e79a:	8c 91       	ld	r24, X
   1e79c:	89 27       	eor	r24, r25
   1e79e:	9c 83       	std	Y+4, r25	; 0x04
   1e7a0:	0e 94 3b f2 	call	0x1e476	; 0x1e476 <xtime>
   1e7a4:	9c 81       	ldd	r25, Y+4	; 0x04
   1e7a6:	89 27       	eor	r24, r25
   1e7a8:	85 25       	eor	r24, r5
   1e7aa:	f6 01       	movw	r30, r12
   1e7ac:	80 83       	st	Z, r24
   1e7ae:	d7 01       	movw	r26, r14
   1e7b0:	9c 91       	ld	r25, X
   1e7b2:	f8 01       	movw	r30, r16
   1e7b4:	80 81       	ld	r24, Z
   1e7b6:	89 27       	eor	r24, r25
   1e7b8:	9c 83       	std	Y+4, r25	; 0x04
   1e7ba:	0e 94 3b f2 	call	0x1e476	; 0x1e476 <xtime>
   1e7be:	9c 81       	ldd	r25, Y+4	; 0x04
   1e7c0:	89 27       	eor	r24, r25
   1e7c2:	98 2f       	mov	r25, r24
   1e7c4:	95 25       	eor	r25, r5
   1e7c6:	d7 01       	movw	r26, r14
   1e7c8:	9c 93       	st	X, r25
   1e7ca:	f8 01       	movw	r30, r16
   1e7cc:	90 81       	ld	r25, Z
   1e7ce:	89 2f       	mov	r24, r25
   1e7d0:	84 25       	eor	r24, r4
   1e7d2:	9c 83       	std	Y+4, r25	; 0x04
   1e7d4:	0e 94 3b f2 	call	0x1e476	; 0x1e476 <xtime>
   1e7d8:	9c 81       	ldd	r25, Y+4	; 0x04
   1e7da:	89 27       	eor	r24, r25
   1e7dc:	58 26       	eor	r5, r24
   1e7de:	d8 01       	movw	r26, r16
   1e7e0:	5c 92       	st	X, r5
   1e7e2:	b4 e0       	ldi	r27, 0x04	; 4
   1e7e4:	2b 0e       	add	r2, r27
   1e7e6:	31 1c       	adc	r3, r1
   1e7e8:	e4 e0       	ldi	r30, 0x04	; 4
   1e7ea:	ce 0e       	add	r12, r30
   1e7ec:	d1 1c       	adc	r13, r1
   1e7ee:	f4 e0       	ldi	r31, 0x04	; 4
   1e7f0:	ef 0e       	add	r14, r31
   1e7f2:	f1 1c       	adc	r15, r1
   1e7f4:	0c 5f       	subi	r16, 0xFC	; 252
   1e7f6:	1f 4f       	sbci	r17, 0xFF	; 255
   1e7f8:	28 14       	cp	r2, r8
   1e7fa:	39 04       	cpc	r3, r9
   1e7fc:	09 f0       	breq	.+2      	; 0x1e800 <AES128_ECB_encrypt+0x16c>
   1e7fe:	b9 cf       	rjmp	.-142    	; 0x1e772 <AES128_ECB_encrypt+0xde>
   1e800:	89 81       	ldd	r24, Y+1	; 0x01
   1e802:	0e 94 f5 f1 	call	0x1e3ea	; 0x1e3ea <AddRoundKey>
   1e806:	99 81       	ldd	r25, Y+1	; 0x01
   1e808:	9f 5f       	subi	r25, 0xFF	; 255
   1e80a:	99 83       	std	Y+1, r25	; 0x01
   1e80c:	9a 30       	cpi	r25, 0x0A	; 10
   1e80e:	09 f0       	breq	.+2      	; 0x1e812 <AES128_ECB_encrypt+0x17e>
   1e810:	a6 cf       	rjmp	.-180    	; 0x1e75e <AES128_ECB_encrypt+0xca>
   1e812:	0e 94 7a f2 	call	0x1e4f4	; 0x1e4f4 <SubBytes>
   1e816:	0e 94 1e f2 	call	0x1e43c	; 0x1e43c <ShiftRows>
   1e81a:	8a e0       	ldi	r24, 0x0A	; 10
   1e81c:	0e 94 f5 f1 	call	0x1e3ea	; 0x1e3ea <AddRoundKey>
   1e820:	26 96       	adiw	r28, 0x06	; 6
   1e822:	e2 e1       	ldi	r30, 0x12	; 18
   1e824:	0c 94 41 f5 	jmp	0x1ea82	; 0x1ea82 <__epilogue_restores__>

0001e828 <AES128_ECB_decrypt>:
   1e828:	ae e0       	ldi	r26, 0x0E	; 14
   1e82a:	b0 e0       	ldi	r27, 0x00	; 0
   1e82c:	ea e1       	ldi	r30, 0x1A	; 26
   1e82e:	f4 ef       	ldi	r31, 0xF4	; 244
   1e830:	0c 94 25 f5 	jmp	0x1ea4a	; 0x1ea4a <__prologue_saves__>
   1e834:	6b 01       	movw	r12, r22
   1e836:	5a 01       	movw	r10, r20
   1e838:	9c 01       	movw	r18, r24
   1e83a:	20 5f       	subi	r18, 0xF0	; 240
   1e83c:	3f 4f       	sbci	r19, 0xFF	; 255
   1e83e:	fa 01       	movw	r30, r20
   1e840:	dc 01       	movw	r26, r24
   1e842:	4d 91       	ld	r20, X+
   1e844:	cd 01       	movw	r24, r26
   1e846:	41 93       	st	Z+, r20
   1e848:	a2 17       	cp	r26, r18
   1e84a:	b3 07       	cpc	r27, r19
   1e84c:	c9 f7       	brne	.-14     	; 0x1e840 <AES128_ECB_decrypt+0x18>
   1e84e:	b0 92 b3 01 	sts	0x01B3, r11
   1e852:	a0 92 b2 01 	sts	0x01B2, r10
   1e856:	94 eb       	ldi	r25, 0xB4	; 180
   1e858:	e9 2e       	mov	r14, r25
   1e85a:	91 e0       	ldi	r25, 0x01	; 1
   1e85c:	f9 2e       	mov	r15, r25
   1e85e:	03 eb       	ldi	r16, 0xB3	; 179
   1e860:	13 e0       	ldi	r17, 0x03	; 3
   1e862:	81 2c       	mov	r8, r1
   1e864:	91 2c       	mov	r9, r1
   1e866:	c4 01       	movw	r24, r8
   1e868:	8d 5f       	subi	r24, 0xFD	; 253
   1e86a:	9d 4f       	sbci	r25, 0xFD	; 253
   1e86c:	0e 94 5c f5 	call	0x1eab8	; 0x1eab8 <eeprom_read_byte>
   1e870:	f7 01       	movw	r30, r14
   1e872:	81 93       	st	Z+, r24
   1e874:	7f 01       	movw	r14, r30
   1e876:	c4 01       	movw	r24, r8
   1e878:	8d 5f       	subi	r24, 0xFD	; 253
   1e87a:	9e 4f       	sbci	r25, 0xFE	; 254
   1e87c:	0e 94 5c f5 	call	0x1eab8	; 0x1eab8 <eeprom_read_byte>
   1e880:	d8 01       	movw	r26, r16
   1e882:	8d 93       	st	X+, r24
   1e884:	8d 01       	movw	r16, r26
   1e886:	bf ef       	ldi	r27, 0xFF	; 255
   1e888:	8b 16       	cp	r8, r27
   1e88a:	91 04       	cpc	r9, r1
   1e88c:	49 f0       	breq	.+18     	; 0x1e8a0 <AES128_ECB_decrypt+0x78>
   1e88e:	c4 01       	movw	r24, r8
   1e890:	8c 5f       	subi	r24, 0xFC	; 252
   1e892:	9f 4f       	sbci	r25, 0xFF	; 255
   1e894:	0e 94 5c f5 	call	0x1eab8	; 0x1eab8 <eeprom_read_byte>
   1e898:	f4 01       	movw	r30, r8
   1e89a:	ec 54       	subi	r30, 0x4C	; 76
   1e89c:	fd 4f       	sbci	r31, 0xFD	; 253
   1e89e:	80 83       	st	Z, r24
   1e8a0:	ef ef       	ldi	r30, 0xFF	; 255
   1e8a2:	8e 1a       	sub	r8, r30
   1e8a4:	9e 0a       	sbc	r9, r30
   1e8a6:	81 14       	cp	r8, r1
   1e8a8:	f1 e0       	ldi	r31, 0x01	; 1
   1e8aa:	9f 06       	cpc	r9, r31
   1e8ac:	e1 f6       	brne	.-72     	; 0x1e866 <AES128_ECB_decrypt+0x3e>
   1e8ae:	d0 92 01 01 	sts	0x0101, r13
   1e8b2:	c0 92 00 01 	sts	0x0100, r12
   1e8b6:	0e 94 91 f2 	call	0x1e522	; 0x1e522 <KeyExpansion>
   1e8ba:	8a e0       	ldi	r24, 0x0A	; 10
   1e8bc:	0e 94 f5 f1 	call	0x1e3ea	; 0x1e3ea <AddRoundKey>
   1e8c0:	89 e0       	ldi	r24, 0x09	; 9
   1e8c2:	28 2e       	mov	r2, r24
   1e8c4:	c5 01       	movw	r24, r10
   1e8c6:	03 96       	adiw	r24, 0x03	; 3
   1e8c8:	9c 83       	std	Y+4, r25	; 0x04
   1e8ca:	8b 83       	std	Y+3, r24	; 0x03
   1e8cc:	d5 01       	movw	r26, r10
   1e8ce:	50 96       	adiw	r26, 0x10	; 16
   1e8d0:	be 83       	std	Y+6, r27	; 0x06
   1e8d2:	ad 83       	std	Y+5, r26	; 0x05
   1e8d4:	0e 94 5d f2 	call	0x1e4ba	; 0x1e4ba <InvShiftRows>
   1e8d8:	0e 94 46 f2 	call	0x1e48c	; 0x1e48c <InvSubBytes>
   1e8dc:	82 2d       	mov	r24, r2
   1e8de:	0e 94 f5 f1 	call	0x1e3ea	; 0x1e3ea <AddRoundKey>
   1e8e2:	cb 80       	ldd	r12, Y+3	; 0x03
   1e8e4:	dc 80       	ldd	r13, Y+4	; 0x04
   1e8e6:	25 01       	movw	r4, r10
   1e8e8:	f2 01       	movw	r30, r4
   1e8ea:	10 81       	ld	r17, Z
   1e8ec:	c6 01       	movw	r24, r12
   1e8ee:	02 97       	sbiw	r24, 0x02	; 2
   1e8f0:	9a 83       	std	Y+2, r25	; 0x02
   1e8f2:	89 83       	std	Y+1, r24	; 0x01
   1e8f4:	dc 01       	movw	r26, r24
   1e8f6:	6c 91       	ld	r22, X
   1e8f8:	f6 01       	movw	r30, r12
   1e8fa:	e2 90       	ld	r14, -Z
   1e8fc:	4f 01       	movw	r8, r30
   1e8fe:	d6 01       	movw	r26, r12
   1e900:	0c 91       	ld	r16, X
   1e902:	81 2f       	mov	r24, r17
   1e904:	6c 87       	std	Y+12, r22	; 0x0c
   1e906:	0e 94 3b f2 	call	0x1e476	; 0x1e476 <xtime>
   1e90a:	38 2f       	mov	r19, r24
   1e90c:	3b 87       	std	Y+11, r19	; 0x0b
   1e90e:	0e 94 3b f2 	call	0x1e476	; 0x1e476 <xtime>
   1e912:	f8 2e       	mov	r15, r24
   1e914:	0e 94 3b f2 	call	0x1e476	; 0x1e476 <xtime>
   1e918:	58 2f       	mov	r21, r24
   1e91a:	6c 85       	ldd	r22, Y+12	; 0x0c
   1e91c:	86 2f       	mov	r24, r22
   1e91e:	5a 87       	std	Y+10, r21	; 0x0a
   1e920:	0e 94 3b f2 	call	0x1e476	; 0x1e476 <xtime>
   1e924:	8d 87       	std	Y+13, r24	; 0x0d
   1e926:	0e 94 3b f2 	call	0x1e476	; 0x1e476 <xtime>
   1e92a:	28 2f       	mov	r18, r24
   1e92c:	29 87       	std	Y+9, r18	; 0x09
   1e92e:	0e 94 3b f2 	call	0x1e476	; 0x1e476 <xtime>
   1e932:	68 2e       	mov	r6, r24
   1e934:	8e 2d       	mov	r24, r14
   1e936:	0e 94 3b f2 	call	0x1e476	; 0x1e476 <xtime>
   1e93a:	48 2f       	mov	r20, r24
   1e93c:	48 87       	std	Y+8, r20	; 0x08
   1e93e:	0e 94 3b f2 	call	0x1e476	; 0x1e476 <xtime>
   1e942:	8e 87       	std	Y+14, r24	; 0x0e
   1e944:	0e 94 3b f2 	call	0x1e476	; 0x1e476 <xtime>
   1e948:	78 2e       	mov	r7, r24
   1e94a:	80 2f       	mov	r24, r16
   1e94c:	0e 94 3b f2 	call	0x1e476	; 0x1e476 <xtime>
   1e950:	98 2f       	mov	r25, r24
   1e952:	9f 83       	std	Y+7, r25	; 0x07
   1e954:	0e 94 3b f2 	call	0x1e476	; 0x1e476 <xtime>
   1e958:	38 2e       	mov	r3, r24
   1e95a:	0e 94 3b f2 	call	0x1e476	; 0x1e476 <xtime>
   1e95e:	3b 85       	ldd	r19, Y+11	; 0x0b
   1e960:	7f 2d       	mov	r23, r15
   1e962:	73 27       	eor	r23, r19
   1e964:	5a 85       	ldd	r21, Y+10	; 0x0a
   1e966:	75 27       	eor	r23, r21
   1e968:	bd 85       	ldd	r27, Y+13	; 0x0d
   1e96a:	7b 27       	eor	r23, r27
   1e96c:	76 25       	eor	r23, r6
   1e96e:	ee 85       	ldd	r30, Y+14	; 0x0e
   1e970:	7e 27       	eor	r23, r30
   1e972:	77 25       	eor	r23, r7
   1e974:	78 27       	eor	r23, r24
   1e976:	70 27       	eor	r23, r16
   1e978:	6c 85       	ldd	r22, Y+12	; 0x0c
   1e97a:	76 27       	eor	r23, r22
   1e97c:	7e 25       	eor	r23, r14
   1e97e:	d2 01       	movw	r26, r4
   1e980:	7c 93       	st	X, r23
   1e982:	7d 85       	ldd	r23, Y+13	; 0x0d
   1e984:	75 27       	eor	r23, r21
   1e986:	29 85       	ldd	r18, Y+9	; 0x09
   1e988:	72 27       	eor	r23, r18
   1e98a:	76 25       	eor	r23, r6
   1e98c:	48 85       	ldd	r20, Y+8	; 0x08
   1e98e:	74 27       	eor	r23, r20
   1e990:	77 25       	eor	r23, r7
   1e992:	73 25       	eor	r23, r3
   1e994:	78 27       	eor	r23, r24
   1e996:	71 27       	eor	r23, r17
   1e998:	70 27       	eor	r23, r16
   1e99a:	7e 25       	eor	r23, r14
   1e99c:	e9 81       	ldd	r30, Y+1	; 0x01
   1e99e:	fa 81       	ldd	r31, Y+2	; 0x02
   1e9a0:	70 83       	st	Z, r23
   1e9a2:	16 27       	eor	r17, r22
   1e9a4:	f5 26       	eor	r15, r21
   1e9a6:	f6 24       	eor	r15, r6
   1e9a8:	4f 25       	eor	r20, r15
   1e9aa:	6e 85       	ldd	r22, Y+14	; 0x0e
   1e9ac:	46 27       	eor	r20, r22
   1e9ae:	47 25       	eor	r20, r7
   1e9b0:	9f 81       	ldd	r25, Y+7	; 0x07
   1e9b2:	49 27       	eor	r20, r25
   1e9b4:	48 27       	eor	r20, r24
   1e9b6:	04 27       	eor	r16, r20
   1e9b8:	01 27       	eor	r16, r17
   1e9ba:	d4 01       	movw	r26, r8
   1e9bc:	0c 93       	st	X, r16
   1e9be:	35 27       	eor	r19, r21
   1e9c0:	23 27       	eor	r18, r19
   1e9c2:	62 26       	eor	r6, r18
   1e9c4:	76 24       	eor	r7, r6
   1e9c6:	79 26       	eor	r7, r25
   1e9c8:	37 24       	eor	r3, r7
   1e9ca:	83 25       	eor	r24, r3
   1e9cc:	e8 26       	eor	r14, r24
   1e9ce:	1e 25       	eor	r17, r14
   1e9d0:	f6 01       	movw	r30, r12
   1e9d2:	10 83       	st	Z, r17
   1e9d4:	f4 e0       	ldi	r31, 0x04	; 4
   1e9d6:	4f 0e       	add	r4, r31
   1e9d8:	51 1c       	adc	r5, r1
   1e9da:	64 e0       	ldi	r22, 0x04	; 4
   1e9dc:	c6 0e       	add	r12, r22
   1e9de:	d1 1c       	adc	r13, r1
   1e9e0:	8d 81       	ldd	r24, Y+5	; 0x05
   1e9e2:	9e 81       	ldd	r25, Y+6	; 0x06
   1e9e4:	48 16       	cp	r4, r24
   1e9e6:	59 06       	cpc	r5, r25
   1e9e8:	09 f0       	breq	.+2      	; 0x1e9ec <AES128_ECB_decrypt+0x1c4>
   1e9ea:	7e cf       	rjmp	.-260    	; 0x1e8e8 <AES128_ECB_decrypt+0xc0>
   1e9ec:	2a 94       	dec	r2
   1e9ee:	21 10       	cpse	r2, r1
   1e9f0:	71 cf       	rjmp	.-286    	; 0x1e8d4 <AES128_ECB_decrypt+0xac>
   1e9f2:	0e 94 5d f2 	call	0x1e4ba	; 0x1e4ba <InvShiftRows>
   1e9f6:	0e 94 46 f2 	call	0x1e48c	; 0x1e48c <InvSubBytes>
   1e9fa:	80 e0       	ldi	r24, 0x00	; 0
   1e9fc:	0e 94 f5 f1 	call	0x1e3ea	; 0x1e3ea <AddRoundKey>
   1ea00:	2e 96       	adiw	r28, 0x0e	; 14
   1ea02:	e2 e1       	ldi	r30, 0x12	; 18
   1ea04:	0c 94 41 f5 	jmp	0x1ea82	; 0x1ea82 <__epilogue_restores__>

0001ea08 <main>:
   1ea08:	0e 94 10 f0 	call	0x1e020	; 0x1e020 <UART1_init>
   1ea0c:	0e 94 4b f0 	call	0x1e096	; 0x1e096 <UART0_init>
   1ea10:	a8 95       	wdr
   1ea12:	84 b1       	in	r24, 0x04	; 4
   1ea14:	83 7f       	andi	r24, 0xF3	; 243
   1ea16:	84 b9       	out	0x04, r24	; 4
   1ea18:	85 b1       	in	r24, 0x05	; 5
   1ea1a:	8c 60       	ori	r24, 0x0C	; 12
   1ea1c:	85 b9       	out	0x05, r24	; 5
   1ea1e:	1a 99       	sbic	0x03, 2	; 3
   1ea20:	05 c0       	rjmp	.+10     	; 0x1ea2c <main+0x24>
   1ea22:	85 e5       	ldi	r24, 0x55	; 85
   1ea24:	0e 94 21 f0 	call	0x1e042	; 0x1e042 <UART1_putchar>
   1ea28:	0e 94 8f f1 	call	0x1e31e	; 0x1e31e <load_firmware>
   1ea2c:	1b 99       	sbic	0x03, 3	; 3
   1ea2e:	05 c0       	rjmp	.+10     	; 0x1ea3a <main+0x32>
   1ea30:	82 e5       	ldi	r24, 0x52	; 82
   1ea32:	0e 94 21 f0 	call	0x1e042	; 0x1e042 <UART1_putchar>
   1ea36:	0e 94 c4 f0 	call	0x1e188	; 0x1e188 <readback>
   1ea3a:	82 e4       	ldi	r24, 0x42	; 66
   1ea3c:	0e 94 21 f0 	call	0x1e042	; 0x1e042 <UART1_putchar>
   1ea40:	0e 94 86 f0 	call	0x1e10c	; 0x1e10c <boot_firmware>
   1ea44:	80 e0       	ldi	r24, 0x00	; 0
   1ea46:	90 e0       	ldi	r25, 0x00	; 0
   1ea48:	08 95       	ret

0001ea4a <__prologue_saves__>:
   1ea4a:	2f 92       	push	r2
   1ea4c:	3f 92       	push	r3
   1ea4e:	4f 92       	push	r4
   1ea50:	5f 92       	push	r5
   1ea52:	6f 92       	push	r6
   1ea54:	7f 92       	push	r7
   1ea56:	8f 92       	push	r8
   1ea58:	9f 92       	push	r9
   1ea5a:	af 92       	push	r10
   1ea5c:	bf 92       	push	r11
   1ea5e:	cf 92       	push	r12
   1ea60:	df 92       	push	r13
   1ea62:	ef 92       	push	r14
   1ea64:	ff 92       	push	r15
   1ea66:	0f 93       	push	r16
   1ea68:	1f 93       	push	r17
   1ea6a:	cf 93       	push	r28
   1ea6c:	df 93       	push	r29
   1ea6e:	cd b7       	in	r28, 0x3d	; 61
   1ea70:	de b7       	in	r29, 0x3e	; 62
   1ea72:	ca 1b       	sub	r28, r26
   1ea74:	db 0b       	sbc	r29, r27
   1ea76:	0f b6       	in	r0, 0x3f	; 63
   1ea78:	f8 94       	cli
   1ea7a:	de bf       	out	0x3e, r29	; 62
   1ea7c:	0f be       	out	0x3f, r0	; 63
   1ea7e:	cd bf       	out	0x3d, r28	; 61
   1ea80:	09 94       	ijmp

0001ea82 <__epilogue_restores__>:
   1ea82:	2a 88       	ldd	r2, Y+18	; 0x12
   1ea84:	39 88       	ldd	r3, Y+17	; 0x11
   1ea86:	48 88       	ldd	r4, Y+16	; 0x10
   1ea88:	5f 84       	ldd	r5, Y+15	; 0x0f
   1ea8a:	6e 84       	ldd	r6, Y+14	; 0x0e
   1ea8c:	7d 84       	ldd	r7, Y+13	; 0x0d
   1ea8e:	8c 84       	ldd	r8, Y+12	; 0x0c
   1ea90:	9b 84       	ldd	r9, Y+11	; 0x0b
   1ea92:	aa 84       	ldd	r10, Y+10	; 0x0a
   1ea94:	b9 84       	ldd	r11, Y+9	; 0x09
   1ea96:	c8 84       	ldd	r12, Y+8	; 0x08
   1ea98:	df 80       	ldd	r13, Y+7	; 0x07
   1ea9a:	ee 80       	ldd	r14, Y+6	; 0x06
   1ea9c:	fd 80       	ldd	r15, Y+5	; 0x05
   1ea9e:	0c 81       	ldd	r16, Y+4	; 0x04
   1eaa0:	1b 81       	ldd	r17, Y+3	; 0x03
   1eaa2:	aa 81       	ldd	r26, Y+2	; 0x02
   1eaa4:	b9 81       	ldd	r27, Y+1	; 0x01
   1eaa6:	ce 0f       	add	r28, r30
   1eaa8:	d1 1d       	adc	r29, r1
   1eaaa:	0f b6       	in	r0, 0x3f	; 63
   1eaac:	f8 94       	cli
   1eaae:	de bf       	out	0x3e, r29	; 62
   1eab0:	0f be       	out	0x3f, r0	; 63
   1eab2:	cd bf       	out	0x3d, r28	; 61
   1eab4:	ed 01       	movw	r28, r26
   1eab6:	08 95       	ret

0001eab8 <eeprom_read_byte>:
   1eab8:	f9 99       	sbic	0x1f, 1	; 31
   1eaba:	fe cf       	rjmp	.-4      	; 0x1eab8 <eeprom_read_byte>
   1eabc:	92 bd       	out	0x22, r25	; 34
   1eabe:	81 bd       	out	0x21, r24	; 33
   1eac0:	f8 9a       	sbi	0x1f, 0	; 31
   1eac2:	99 27       	eor	r25, r25
   1eac4:	80 b5       	in	r24, 0x20	; 32
   1eac6:	08 95       	ret

0001eac8 <eeprom_read_word>:
   1eac8:	a8 e1       	ldi	r26, 0x18	; 24
   1eaca:	b0 e0       	ldi	r27, 0x00	; 0
   1eacc:	42 e0       	ldi	r20, 0x02	; 2
   1eace:	50 e0       	ldi	r21, 0x00	; 0
   1ead0:	0c 94 72 f5 	jmp	0x1eae4	; 0x1eae4 <eeprom_read_blraw>

0001ead4 <eeprom_update_word>:
   1ead4:	01 96       	adiw	r24, 0x01	; 1
   1ead6:	27 2f       	mov	r18, r23
   1ead8:	0e 94 81 f5 	call	0x1eb02	; 0x1eb02 <eeprom_update_r18>
   1eadc:	0c 94 80 f5 	jmp	0x1eb00	; 0x1eb00 <eeprom_update_byte>

0001eae0 <eeprom_read_block>:
   1eae0:	dc 01       	movw	r26, r24
   1eae2:	cb 01       	movw	r24, r22

0001eae4 <eeprom_read_blraw>:
   1eae4:	fc 01       	movw	r30, r24
   1eae6:	f9 99       	sbic	0x1f, 1	; 31
   1eae8:	fe cf       	rjmp	.-4      	; 0x1eae6 <eeprom_read_blraw+0x2>
   1eaea:	06 c0       	rjmp	.+12     	; 0x1eaf8 <eeprom_read_blraw+0x14>
   1eaec:	f2 bd       	out	0x22, r31	; 34
   1eaee:	e1 bd       	out	0x21, r30	; 33
   1eaf0:	f8 9a       	sbi	0x1f, 0	; 31
   1eaf2:	31 96       	adiw	r30, 0x01	; 1
   1eaf4:	00 b4       	in	r0, 0x20	; 32
   1eaf6:	0d 92       	st	X+, r0
   1eaf8:	41 50       	subi	r20, 0x01	; 1
   1eafa:	50 40       	sbci	r21, 0x00	; 0
   1eafc:	b8 f7       	brcc	.-18     	; 0x1eaec <eeprom_read_blraw+0x8>
   1eafe:	08 95       	ret

0001eb00 <eeprom_update_byte>:
   1eb00:	26 2f       	mov	r18, r22

0001eb02 <eeprom_update_r18>:
   1eb02:	f9 99       	sbic	0x1f, 1	; 31
   1eb04:	fe cf       	rjmp	.-4      	; 0x1eb02 <eeprom_update_r18>
   1eb06:	92 bd       	out	0x22, r25	; 34
   1eb08:	81 bd       	out	0x21, r24	; 33
   1eb0a:	f8 9a       	sbi	0x1f, 0	; 31
   1eb0c:	01 97       	sbiw	r24, 0x01	; 1
   1eb0e:	00 b4       	in	r0, 0x20	; 32
   1eb10:	02 16       	cp	r0, r18
   1eb12:	39 f0       	breq	.+14     	; 0x1eb22 <eeprom_update_r18+0x20>
   1eb14:	1f ba       	out	0x1f, r1	; 31
   1eb16:	20 bd       	out	0x20, r18	; 32
   1eb18:	0f b6       	in	r0, 0x3f	; 63
   1eb1a:	f8 94       	cli
   1eb1c:	fa 9a       	sbi	0x1f, 2	; 31
   1eb1e:	f9 9a       	sbi	0x1f, 1	; 31
   1eb20:	0f be       	out	0x3f, r0	; 63
   1eb22:	08 95       	ret

Disassembly of section .eeprom:

00810000 <fw_version>:
	...

00810002 <fw_size>:
	...

00810004 <rcon>:
  810004:	8d 01       	movw	r16, r26
  810006:	02 04       	cpc	r0, r2
  810008:	08 10       	cpse	r0, r8
  81000a:	20 40       	sbci	r18, 0x00	; 0
  81000c:	80 1b       	sub	r24, r16
  81000e:	36 6c       	ori	r19, 0xC6	; 198
  810010:	d8 ab       	std	Y+48, r29	; 0x30
  810012:	4d 9a       	sbi	0x09, 5	; 9
  810014:	2f 5e       	subi	r18, 0xEF	; 239
  810016:	bc 63       	ori	r27, 0x3C	; 60
  810018:	c6 97       	sbiw	r24, 0x36	; 54
  81001a:	35 6a       	ori	r19, 0xA5	; 165
  81001c:	d4 b3       	in	r29, 0x14	; 20
  81001e:	7d fa       	.word	0xfa7d	; ????
  810020:	ef c5       	rjmp	.+3038   	; 0x810c00 <__eeprom_end+0x8fd>
  810022:	91 39       	cpi	r25, 0x91	; 145
  810024:	72 e4       	ldi	r23, 0x42	; 66
  810026:	d3 bd       	out	0x23, r29	; 35
  810028:	61 c2       	rjmp	.+1218   	; 0x8104ec <__eeprom_end+0x1e9>
  81002a:	9f 25       	eor	r25, r15
  81002c:	4a 94       	dec	r4
  81002e:	33 66       	ori	r19, 0x63	; 99
  810030:	cc 83       	std	Y+4, r28	; 0x04
  810032:	1d 3a       	cpi	r17, 0xAD	; 173
  810034:	74 e8       	ldi	r23, 0x84	; 132
  810036:	cb 8d       	ldd	r28, Y+27	; 0x1b
  810038:	01 02       	muls	r16, r17
  81003a:	04 08       	sbc	r0, r4
  81003c:	10 20       	and	r1, r0
  81003e:	40 80       	ld	r4, Z
  810040:	1b 36       	cpi	r17, 0x6B	; 107
  810042:	6c d8       	rcall	.-3880   	; 0x80f11c <__bss_end+0xec69>
  810044:	ab 4d       	sbci	r26, 0xDB	; 219
  810046:	9a 2f       	mov	r25, r26
  810048:	5e bc       	out	0x2e, r5	; 46
  81004a:	63 c6       	rjmp	.+3270   	; 0x810d12 <__eeprom_end+0xa0f>
  81004c:	97 35       	cpi	r25, 0x57	; 87
  81004e:	6a d4       	rcall	.+2260   	; 0x810924 <__eeprom_end+0x621>
  810050:	b3 7d       	andi	r27, 0xD3	; 211
  810052:	fa ef       	ldi	r31, 0xFA	; 250
  810054:	c5 91       	lpm	r28, Z+
  810056:	39 72       	andi	r19, 0x29	; 41
  810058:	e4 d3       	rcall	.+1992   	; 0x810822 <__eeprom_end+0x51f>
  81005a:	bd 61       	ori	r27, 0x1D	; 29
  81005c:	c2 9f       	mul	r28, r18
  81005e:	25 4a       	sbci	r18, 0xA5	; 165
  810060:	94 33       	cpi	r25, 0x34	; 52
  810062:	66 cc       	rjmp	.-1844   	; 0x80f930 <__bss_end+0xf47d>
  810064:	83 1d       	adc	r24, r3
  810066:	3a 74       	andi	r19, 0x4A	; 74
  810068:	e8 cb       	rjmp	.-2096   	; 0x80f83a <__bss_end+0xf387>
  81006a:	8d 01       	movw	r16, r26
  81006c:	02 04       	cpc	r0, r2
  81006e:	08 10       	cpse	r0, r8
  810070:	20 40       	sbci	r18, 0x00	; 0
  810072:	80 1b       	sub	r24, r16
  810074:	36 6c       	ori	r19, 0xC6	; 198
  810076:	d8 ab       	std	Y+48, r29	; 0x30
  810078:	4d 9a       	sbi	0x09, 5	; 9
  81007a:	2f 5e       	subi	r18, 0xEF	; 239
  81007c:	bc 63       	ori	r27, 0x3C	; 60
  81007e:	c6 97       	sbiw	r24, 0x36	; 54
  810080:	35 6a       	ori	r19, 0xA5	; 165
  810082:	d4 b3       	in	r29, 0x14	; 20
  810084:	7d fa       	.word	0xfa7d	; ????
  810086:	ef c5       	rjmp	.+3038   	; 0x810c66 <__eeprom_end+0x963>
  810088:	91 39       	cpi	r25, 0x91	; 145
  81008a:	72 e4       	ldi	r23, 0x42	; 66
  81008c:	d3 bd       	out	0x23, r29	; 35
  81008e:	61 c2       	rjmp	.+1218   	; 0x810552 <__eeprom_end+0x24f>
  810090:	9f 25       	eor	r25, r15
  810092:	4a 94       	dec	r4
  810094:	33 66       	ori	r19, 0x63	; 99
  810096:	cc 83       	std	Y+4, r28	; 0x04
  810098:	1d 3a       	cpi	r17, 0xAD	; 173
  81009a:	74 e8       	ldi	r23, 0x84	; 132
  81009c:	cb 8d       	ldd	r28, Y+27	; 0x1b
  81009e:	01 02       	muls	r16, r17
  8100a0:	04 08       	sbc	r0, r4
  8100a2:	10 20       	and	r1, r0
  8100a4:	40 80       	ld	r4, Z
  8100a6:	1b 36       	cpi	r17, 0x6B	; 107
  8100a8:	6c d8       	rcall	.-3880   	; 0x80f182 <__bss_end+0xeccf>
  8100aa:	ab 4d       	sbci	r26, 0xDB	; 219
  8100ac:	9a 2f       	mov	r25, r26
  8100ae:	5e bc       	out	0x2e, r5	; 46
  8100b0:	63 c6       	rjmp	.+3270   	; 0x810d78 <__eeprom_end+0xa75>
  8100b2:	97 35       	cpi	r25, 0x57	; 87
  8100b4:	6a d4       	rcall	.+2260   	; 0x81098a <__eeprom_end+0x687>
  8100b6:	b3 7d       	andi	r27, 0xD3	; 211
  8100b8:	fa ef       	ldi	r31, 0xFA	; 250
  8100ba:	c5 91       	lpm	r28, Z+
  8100bc:	39 72       	andi	r19, 0x29	; 41
  8100be:	e4 d3       	rcall	.+1992   	; 0x810888 <__eeprom_end+0x585>
  8100c0:	bd 61       	ori	r27, 0x1D	; 29
  8100c2:	c2 9f       	mul	r28, r18
  8100c4:	25 4a       	sbci	r18, 0xA5	; 165
  8100c6:	94 33       	cpi	r25, 0x34	; 52
  8100c8:	66 cc       	rjmp	.-1844   	; 0x80f996 <__bss_end+0xf4e3>
  8100ca:	83 1d       	adc	r24, r3
  8100cc:	3a 74       	andi	r19, 0x4A	; 74
  8100ce:	e8 cb       	rjmp	.-2096   	; 0x80f8a0 <__bss_end+0xf3ed>
  8100d0:	8d 01       	movw	r16, r26
  8100d2:	02 04       	cpc	r0, r2
  8100d4:	08 10       	cpse	r0, r8
  8100d6:	20 40       	sbci	r18, 0x00	; 0
  8100d8:	80 1b       	sub	r24, r16
  8100da:	36 6c       	ori	r19, 0xC6	; 198
  8100dc:	d8 ab       	std	Y+48, r29	; 0x30
  8100de:	4d 9a       	sbi	0x09, 5	; 9
  8100e0:	2f 5e       	subi	r18, 0xEF	; 239
  8100e2:	bc 63       	ori	r27, 0x3C	; 60
  8100e4:	c6 97       	sbiw	r24, 0x36	; 54
  8100e6:	35 6a       	ori	r19, 0xA5	; 165
  8100e8:	d4 b3       	in	r29, 0x14	; 20
  8100ea:	7d fa       	.word	0xfa7d	; ????
  8100ec:	ef c5       	rjmp	.+3038   	; 0x810ccc <__eeprom_end+0x9c9>
  8100ee:	91 39       	cpi	r25, 0x91	; 145
  8100f0:	72 e4       	ldi	r23, 0x42	; 66
  8100f2:	d3 bd       	out	0x23, r29	; 35
  8100f4:	61 c2       	rjmp	.+1218   	; 0x8105b8 <__eeprom_end+0x2b5>
  8100f6:	9f 25       	eor	r25, r15
  8100f8:	4a 94       	dec	r4
  8100fa:	33 66       	ori	r19, 0x63	; 99
  8100fc:	cc 83       	std	Y+4, r28	; 0x04
  8100fe:	1d 3a       	cpi	r17, 0xAD	; 173
  810100:	74 e8       	ldi	r23, 0x84	; 132
  810102:	cb 52       	subi	r28, 0x2B	; 43

00810103 <Rsbox>:
  810103:	52 09       	sbc	r21, r2
  810105:	6a d5       	rcall	.+2772   	; 0x810bdb <__eeprom_end+0x8d8>
  810107:	30 36       	cpi	r19, 0x60	; 96
  810109:	a5 38       	cpi	r26, 0x85	; 133
  81010b:	bf 40       	sbci	r27, 0x0F	; 15
  81010d:	a3 9e       	mul	r10, r19
  81010f:	81 f3       	breq	.-32     	; 0x8100f1 <rcon+0xed>
  810111:	d7 fb       	bst	r29, 7
  810113:	7c e3       	ldi	r23, 0x3C	; 60
  810115:	39 82       	std	Y+1, r3	; 0x01
  810117:	9b 2f       	mov	r25, r27
  810119:	ff 87       	std	Y+15, r31	; 0x0f
  81011b:	34 8e       	std	Z+28, r3	; 0x1c
  81011d:	43 44       	sbci	r20, 0x43	; 67
  81011f:	c4 de       	rcall	.-632    	; 0x80fea9 <__bss_end+0xf9f6>
  810121:	e9 cb       	rjmp	.-2094   	; 0x80f8f5 <__bss_end+0xf442>
  810123:	54 7b       	andi	r21, 0xB4	; 180
  810125:	94 32       	cpi	r25, 0x24	; 36
  810127:	a6 c2       	rjmp	.+1356   	; 0x810675 <__eeprom_end+0x372>
  810129:	23 3d       	cpi	r18, 0xD3	; 211
  81012b:	ee 4c       	sbci	r30, 0xCE	; 206
  81012d:	95 0b       	sbc	r25, r21
  81012f:	42 fa       	bst	r4, 2
  810131:	c3 4e       	sbci	r28, 0xE3	; 227
  810133:	08 2e       	mov	r0, r24
  810135:	a1 66       	ori	r26, 0x61	; 97
  810137:	28 d9       	rcall	.-3504   	; 0x80f389 <__bss_end+0xeed6>
  810139:	24 b2       	in	r2, 0x14	; 20
  81013b:	76 5b       	subi	r23, 0xB6	; 182
  81013d:	a2 49       	sbci	r26, 0x92	; 146
  81013f:	6d 8b       	std	Y+21, r22	; 0x15
  810141:	d1 25       	eor	r29, r1
  810143:	72 f8       	bld	r7, 2
  810145:	f6 64       	ori	r31, 0x46	; 70
  810147:	86 68       	ori	r24, 0x86	; 134
  810149:	98 16       	cp	r9, r24
  81014b:	d4 a4       	ldd	r13, Z+44	; 0x2c
  81014d:	5c cc       	rjmp	.-1864   	; 0x80fa07 <__bss_end+0xf554>
  81014f:	5d 65       	ori	r21, 0x5D	; 93
  810151:	b6 92       	lac	Z, r11
  810153:	6c 70       	andi	r22, 0x0C	; 12
  810155:	48 50       	subi	r20, 0x08	; 8
  810157:	fd ed       	ldi	r31, 0xDD	; 221
  810159:	b9 da       	rcall	.-2702   	; 0x80f6cd <__bss_end+0xf21a>
  81015b:	5e 15       	cp	r21, r14
  81015d:	46 57       	subi	r20, 0x76	; 118
  81015f:	a7 8d       	ldd	r26, Z+31	; 0x1f
  810161:	9d 84       	ldd	r9, Y+13	; 0x0d
  810163:	90 d8       	rcall	.-3808   	; 0x80f285 <__bss_end+0xedd2>
  810165:	ab 00       	.word	0x00ab	; ????
  810167:	8c bc       	out	0x2c, r8	; 44
  810169:	d3 0a       	sbc	r13, r19
  81016b:	f7 e4       	ldi	r31, 0x47	; 71
  81016d:	58 05       	cpc	r21, r8
  81016f:	b8 b3       	in	r27, 0x18	; 24
  810171:	45 06       	cpc	r4, r21
  810173:	d0 2c       	mov	r13, r0
  810175:	1e 8f       	std	Y+30, r17	; 0x1e
  810177:	ca 3f       	cpi	r28, 0xFA	; 250
  810179:	0f 02       	muls	r16, r31
  81017b:	c1 af       	std	Z+57, r28	; 0x39
  81017d:	bd 03       	fmulsu	r19, r21
  81017f:	01 13       	cpse	r16, r17
  810181:	8a 6b       	ori	r24, 0xBA	; 186
  810183:	3a 91       	ld	r19, -Y
  810185:	11 41       	sbci	r17, 0x11	; 17
  810187:	4f 67       	ori	r20, 0x7F	; 127
  810189:	dc ea       	ldi	r29, 0xAC	; 172
  81018b:	97 f2       	brie	.-92     	; 0x810131 <Rsbox+0x2e>
  81018d:	cf ce       	rjmp	.-610    	; 0x80ff2d <__bss_end+0xfa7a>
  81018f:	f0 b4       	in	r15, 0x20	; 32
  810191:	e6 73       	andi	r30, 0x36	; 54
  810193:	96 ac       	ldd	r9, Z+62	; 0x3e
  810195:	74 22       	and	r7, r20
  810197:	e7 ad       	ldd	r30, Z+63	; 0x3f
  810199:	35 85       	ldd	r19, Z+13	; 0x0d
  81019b:	e2 f9       	bld	r30, 2
  81019d:	37 e8       	ldi	r19, 0x87	; 135
  81019f:	1c 75       	andi	r17, 0x5C	; 92
  8101a1:	df 6e       	ori	r29, 0xEF	; 239
  8101a3:	47 f1       	brie	.+80     	; 0x8101f5 <Rsbox+0xf2>
  8101a5:	1a 71       	andi	r17, 0x1A	; 26
  8101a7:	1d 29       	or	r17, r13
  8101a9:	c5 89       	ldd	r28, Z+21	; 0x15
  8101ab:	6f b7       	in	r22, 0x3f	; 63
  8101ad:	62 0e       	add	r6, r18
  8101af:	aa 18       	sub	r10, r10
  8101b1:	be 1b       	sub	r27, r30
  8101b3:	fc 56       	subi	r31, 0x6C	; 108
  8101b5:	3e 4b       	sbci	r19, 0xBE	; 190
  8101b7:	c6 d2       	rcall	.+1420   	; 0x810745 <__eeprom_end+0x442>
  8101b9:	79 20       	and	r7, r9
  8101bb:	9a db       	rcall	.-2252   	; 0x80f8f1 <__bss_end+0xf43e>
  8101bd:	c0 fe       	sbrs	r12, 0
  8101bf:	78 cd       	rjmp	.-1296   	; 0x80fcb1 <__bss_end+0xf7fe>
  8101c1:	5a f4       	brpl	.+22     	; 0x8101d9 <Rsbox+0xd6>
  8101c3:	1f dd       	rcall	.-1474   	; 0x80fc03 <__bss_end+0xf750>
  8101c5:	a8 33       	cpi	r26, 0x38	; 56
  8101c7:	88 07       	cpc	r24, r24
  8101c9:	c7 31       	cpi	r28, 0x17	; 23
  8101cb:	b1 12       	cpse	r11, r17
  8101cd:	10 59       	subi	r17, 0x90	; 144
  8101cf:	27 80       	ldd	r2, Z+7	; 0x07
  8101d1:	ec 5f       	subi	r30, 0xFC	; 252
  8101d3:	60 51       	subi	r22, 0x10	; 16
  8101d5:	7f a9       	ldd	r23, Y+55	; 0x37
  8101d7:	19 b5       	in	r17, 0x29	; 41
  8101d9:	4a 0d       	add	r20, r10
  8101db:	2d e5       	ldi	r18, 0x5D	; 93
  8101dd:	7a 9f       	mul	r23, r26
  8101df:	93 c9       	rjmp	.-3290   	; 0x80f507 <__bss_end+0xf054>
  8101e1:	9c ef       	ldi	r25, 0xFC	; 252
  8101e3:	a0 e0       	ldi	r26, 0x00	; 0
  8101e5:	3b 4d       	sbci	r19, 0xDB	; 219
  8101e7:	ae 2a       	or	r10, r30
  8101e9:	f5 b0       	in	r15, 0x05	; 5
  8101eb:	c8 eb       	ldi	r28, 0xB8	; 184
  8101ed:	bb 3c       	cpi	r27, 0xCB	; 203
  8101ef:	83 53       	subi	r24, 0x33	; 51
  8101f1:	99 61       	ori	r25, 0x19	; 25
  8101f3:	17 2b       	or	r17, r23
  8101f5:	04 7e       	andi	r16, 0xE4	; 228
  8101f7:	ba 77       	andi	r27, 0x7A	; 122
  8101f9:	d6 26       	eor	r13, r22
  8101fb:	e1 69       	ori	r30, 0x91	; 145
  8101fd:	14 63       	ori	r17, 0x34	; 52
  8101ff:	55 21       	and	r21, r5
  810201:	0c 7d       	andi	r16, 0xDC	; 220

00810203 <Sbox>:
  810203:	63 7c       	andi	r22, 0xC3	; 195
  810205:	77 7b       	andi	r23, 0xB7	; 183
  810207:	f2 6b       	ori	r31, 0xB2	; 178
  810209:	6f c5       	rjmp	.+2782   	; 0x810ce9 <__eeprom_end+0x9e6>
  81020b:	30 01       	movw	r6, r0
  81020d:	67 2b       	or	r22, r23
  81020f:	fe d7       	rcall	.+4092   	; 0x81120d <__eeprom_end+0xf0a>
  810211:	ab 76       	andi	r26, 0x6B	; 107
  810213:	ca 82       	std	Y+2, r12	; 0x02
  810215:	c9 7d       	andi	r28, 0xD9	; 217
  810217:	fa 59       	subi	r31, 0x9A	; 154
  810219:	47 f0       	brie	.+16     	; 0x81022b <Sbox+0x28>
  81021b:	ad d4       	rcall	.+2394   	; 0x810b77 <__eeprom_end+0x874>
  81021d:	a2 af       	std	Z+58, r26	; 0x3a
  81021f:	9c a4       	ldd	r9, Y+44	; 0x2c
  810221:	72 c0       	rjmp	.+228    	; 0x810307 <__eeprom_end+0x4>
  810223:	b7 fd       	sbrc	r27, 7
  810225:	93 26       	eor	r9, r19
  810227:	36 3f       	cpi	r19, 0xF6	; 246
  810229:	f7 cc       	rjmp	.-1554   	; 0x80fc19 <__bss_end+0xf766>
  81022b:	34 a5       	ldd	r19, Z+44	; 0x2c
  81022d:	e5 f1       	brhs	.+120    	; 0x8102a7 <Sbox+0xa4>
  81022f:	71 d8       	rcall	.-3870   	; 0x80f313 <__bss_end+0xee60>
  810231:	31 15       	cp	r19, r1
  810233:	04 c7       	rjmp	.+3592   	; 0x81103d <__eeprom_end+0xd3a>
  810235:	23 c3       	rjmp	.+1606   	; 0x81087d <__eeprom_end+0x57a>
  810237:	18 96       	adiw	r26, 0x08	; 8
  810239:	05 9a       	sbi	0x00, 5	; 0
  81023b:	07 12       	cpse	r0, r23
  81023d:	80 e2       	ldi	r24, 0x20	; 32
  81023f:	eb 27       	eor	r30, r27
  810241:	b2 75       	andi	r27, 0x52	; 82
  810243:	09 83       	std	Y+1, r16	; 0x01
  810245:	2c 1a       	sub	r2, r28
  810247:	1b 6e       	ori	r17, 0xEB	; 235
  810249:	5a a0       	ldd	r5, Y+34	; 0x22
  81024b:	52 3b       	cpi	r21, 0xB2	; 178
  81024d:	d6 b3       	in	r29, 0x16	; 22
  81024f:	29 e3       	ldi	r18, 0x39	; 57
  810251:	2f 84       	ldd	r2, Y+15	; 0x0f
  810253:	53 d1       	rcall	.+678    	; 0x8104fb <__eeprom_end+0x1f8>
  810255:	00 ed       	ldi	r16, 0xD0	; 208
  810257:	20 fc       	sbrc	r2, 0
  810259:	b1 5b       	subi	r27, 0xB1	; 177
  81025b:	6a cb       	rjmp	.-2348   	; 0x80f931 <__bss_end+0xf47e>
  81025d:	be 39       	cpi	r27, 0x9E	; 158
  81025f:	4a 4c       	sbci	r20, 0xCA	; 202
  810261:	58 cf       	rjmp	.-336    	; 0x810113 <Rsbox+0x10>
  810263:	d0 ef       	ldi	r29, 0xF0	; 240
  810265:	aa fb       	.word	0xfbaa	; ????
  810267:	43 4d       	sbci	r20, 0xD3	; 211
  810269:	33 85       	ldd	r19, Z+11	; 0x0b
  81026b:	45 f9       	bld	r20, 5
  81026d:	02 7f       	andi	r16, 0xF2	; 242
  81026f:	50 3c       	cpi	r21, 0xC0	; 192
  810271:	9f a8       	ldd	r9, Y+55	; 0x37
  810273:	51 a3       	std	Z+33, r21	; 0x21
  810275:	40 8f       	std	Z+24, r20	; 0x18
  810277:	92 9d       	mul	r25, r2
  810279:	38 f5       	brcc	.+78     	; 0x8102c9 <Sbox+0xc6>
  81027b:	bc b6       	in	r11, 0x3c	; 60
  81027d:	da 21       	and	r29, r10
  81027f:	10 ff       	sbrs	r17, 0
  810281:	f3 d2       	rcall	.+1510   	; 0x810869 <__eeprom_end+0x566>
  810283:	cd 0c       	add	r12, r13
  810285:	13 ec       	ldi	r17, 0xC3	; 195
  810287:	5f 97       	sbiw	r26, 0x1f	; 31
  810289:	44 17       	cp	r20, r20
  81028b:	c4 a7       	std	Z+44, r28	; 0x2c
  81028d:	7e 3d       	cpi	r23, 0xDE	; 222
  81028f:	64 5d       	subi	r22, 0xD4	; 212
  810291:	19 73       	andi	r17, 0x39	; 57
  810293:	60 81       	ld	r22, Z
  810295:	4f dc       	rcall	.-1890   	; 0x80fb35 <__bss_end+0xf682>
  810297:	22 2a       	or	r2, r18
  810299:	90 88       	ldd	r9, Z+16	; 0x10
  81029b:	46 ee       	ldi	r20, 0xE6	; 230
  81029d:	b8 14       	cp	r11, r8
  81029f:	de 5e       	subi	r29, 0xEE	; 238
  8102a1:	0b db       	rcall	.-2538   	; 0x80f8b9 <__bss_end+0xf406>
  8102a3:	e0 32       	cpi	r30, 0x20	; 32
  8102a5:	3a 0a       	sbc	r3, r26
  8102a7:	49 06       	cpc	r4, r25
  8102a9:	24 5c       	subi	r18, 0xC4	; 196
  8102ab:	c2 d3       	rcall	.+1924   	; 0x810a31 <__eeprom_end+0x72e>
  8102ad:	ac 62       	ori	r26, 0x2C	; 44
  8102af:	91 95       	neg	r25
  8102b1:	e4 79       	andi	r30, 0x94	; 148
  8102b3:	e7 c8       	rjmp	.-3634   	; 0x80f483 <__bss_end+0xefd0>
  8102b5:	37 6d       	ori	r19, 0xD7	; 215
  8102b7:	8d d5       	rcall	.+2842   	; 0x810dd3 <__eeprom_end+0xad0>
  8102b9:	4e a9       	ldd	r20, Y+54	; 0x36
  8102bb:	6c 56       	subi	r22, 0x6C	; 108
  8102bd:	f4 ea       	ldi	r31, 0xA4	; 164
  8102bf:	65 7a       	andi	r22, 0xA5	; 165
  8102c1:	ae 08       	sbc	r10, r14
  8102c3:	ba 78       	andi	r27, 0x8A	; 138
  8102c5:	25 2e       	mov	r2, r21
  8102c7:	1c a6       	std	Y+44, r1	; 0x2c
  8102c9:	b4 c6       	rjmp	.+3432   	; 0x811033 <__eeprom_end+0xd30>
  8102cb:	e8 dd       	rcall	.-1072   	; 0x80fe9d <__bss_end+0xf9ea>
  8102cd:	74 1f       	adc	r23, r20
  8102cf:	4b bd       	out	0x2b, r20	; 43
  8102d1:	8b 8a       	std	Y+19, r8	; 0x13
  8102d3:	70 3e       	cpi	r23, 0xE0	; 224
  8102d5:	b5 66       	ori	r27, 0x65	; 101
  8102d7:	48 03       	fmul	r20, r16
  8102d9:	f6 0e       	add	r15, r22
  8102db:	61 35       	cpi	r22, 0x51	; 81
  8102dd:	57 b9       	out	0x07, r21	; 7
  8102df:	86 c1       	rjmp	.+780    	; 0x8105ed <__eeprom_end+0x2ea>
  8102e1:	1d 9e       	mul	r1, r29
  8102e3:	e1 f8       	bld	r14, 1
  8102e5:	98 11       	cpse	r25, r8
  8102e7:	69 d9       	rcall	.-3374   	; 0x80f5bb <__bss_end+0xf108>
  8102e9:	8e 94 9b 1e 	call	0x203d36	; 0x203d36 <__data_load_end+0x1e5212>
  8102ed:	87 e9       	ldi	r24, 0x97	; 151
  8102ef:	ce 55       	subi	r28, 0x5E	; 94
  8102f1:	28 df       	rcall	.-432    	; 0x810143 <Rsbox+0x40>
  8102f3:	8c a1       	ldd	r24, Y+36	; 0x24
  8102f5:	89 0d       	add	r24, r9
  8102f7:	bf e6       	ldi	r27, 0x6F	; 111
  8102f9:	42 68       	ori	r20, 0x82	; 130
  8102fb:	41 99       	sbic	0x08, 1	; 8
  8102fd:	2d 0f       	add	r18, r29
  8102ff:	b0 54       	subi	r27, 0x40	; 64
  810301:	bb 16       	cp	r11, r27
